(dp0
S'https://api.flickr.com/services/rest/?format=json&method=flickr.photos.getInfo&per_page=50&photo_id=30418030390&tag_mode=all&tags=sunset'
p1
VjsonFlickrApi({"photo":{"id":"30418030390","secret":"2d21d13b54","server":"5704","farm":6,"dateuploaded":"1478031136","isfavorite":0,"license":"0","safety_level":"0","rotation":0,"originalsecret":"44c032f67a","originalformat":"jpg","owner":{"nsid":"142594009@N04","username":"TheAnthonyBrooks","realname":"Anthony Brooks","location":"","iconserver":"7427","iconfarm":8,"path_alias":"theanthonybrooks"},"title":{"_content":"Lazise - 10\u005c/22"},"description":{"_content":""},"visibility":{"ispublic":1,"isfriend":0,"isfamily":0},"dates":{"posted":"1478031136","taken":"2016-10-22 07:51:56","takengranularity":"0","takenunknown":"0","lastupdate":"1478031147"},"views":"14","editability":{"cancomment":0,"canaddmeta":0},"publiceditability":{"cancomment":1,"canaddmeta":0},"usage":{"candownload":1,"canblog":0,"canprint":0,"canshare":1},"comments":{"_content":"0"},"notes":{"note":[]},"people":{"haspeople":0},"tags":{"tag":[{"id":"142561870-30418030390-288814","author":"142594009@N04","authorname":"TheAnthonyBrooks","raw":"Lazise","_content":"lazise","machine_tag":0},{"id":"142561870-30418030390-297","author":"142594009@N04","authorname":"TheAnthonyBrooks","raw":"Italy","_content":"italy","machine_tag":0},{"id":"142561870-30418030390-3272","author":"142594009@N04","authorname":"TheAnthonyBrooks","raw":"Europe","_content":"europe","machine_tag":0},{"id":"142561870-30418030390-400","author":"142594009@N04","authorname":"TheAnthonyBrooks","raw":"Lake","_content":"lake","machine_tag":0},{"id":"142561870-30418030390-3140","author":"142594009@N04","authorname":"TheAnthonyBrooks","raw":"Garda","_content":"garda","machine_tag":0},{"id":"142561870-30418030390-223","author":"142594009@N04","authorname":"TheAnthonyBrooks","raw":"Sunset","_content":"sunset","machine_tag":0},{"id":"142561870-30418030390-1783","author":"142594009@N04","authorname":"TheAnthonyBrooks","raw":"Boats","_content":"boats","machine_tag":0},{"id":"142561870-30418030390-791","author":"142594009@N04","authorname":"TheAnthonyBrooks","raw":"Nature","_content":"nature","machine_tag":0},{"id":"142561870-30418030390-1174","author":"142594009@N04","authorname":"TheAnthonyBrooks","raw":"Architecture","_content":"architecture","machine_tag":0},{"id":"142561870-30418030390-1312","author":"142594009@N04","authorname":"TheAnthonyBrooks","raw":"Port","_content":"port","machine_tag":0},{"id":"142561870-30418030390-298853180","author":"142594009@N04","authorname":"TheAnthonyBrooks","raw":"SketchyTravels","_content":"sketchytravels","machine_tag":0},{"id":"142561870-30418030390-121","author":"142594009@N04","authorname":"TheAnthonyBrooks","raw":"Travel","_content":"travel","machine_tag":0}]},"urls":{"url":[{"type":"photopage","_content":"https:\u005c/\u005c/www.flickr.com\u005c/photos\u005c/theanthonybrooks\u005c/30418030390\u005c/"}]},"media":"photo"},"stat":"ok"})
p2
sS'https://api.flickr.com/services/rest/?format=json&method=flickr.photos.getInfo&per_page=50&photo_id=30086360994&tag_mode=all&tags=sunset'
p3
VjsonFlickrApi({"photo":{"id":"30086360994","secret":"13da2e8a22","server":"5824","farm":6,"dateuploaded":"1478031743","isfavorite":0,"license":"0","safety_level":"0","rotation":0,"originalsecret":"447e58a299","originalformat":"jpg","owner":{"nsid":"23647600@N06","username":"phudd23","realname":"","location":"","iconserver":"0","iconfarm":0,"path_alias":null},"title":{"_content":"Tanna, Vanuatu"},"description":{"_content":""},"visibility":{"ispublic":1,"isfriend":0,"isfamily":0},"dates":{"posted":"1478031743","taken":"2016-03-22 05:23:43","takengranularity":"0","takenunknown":"0","lastupdate":"1478032187"},"views":"37","editability":{"cancomment":0,"canaddmeta":0},"publiceditability":{"cancomment":1,"canaddmeta":0},"usage":{"candownload":1,"canblog":0,"canprint":0,"canshare":1},"comments":{"_content":"0"},"notes":{"note":[]},"people":{"haspeople":0},"tags":{"tag":[{"id":"23602278-30086360994-228","author":"23647600@N06","authorname":"phudd23","raw":"sea","_content":"sea","machine_tag":0},{"id":"23602278-30086360994-223","author":"23647600@N06","authorname":"phudd23","raw":"sunset","_content":"sunset","machine_tag":0},{"id":"23602278-30086360994-449333","author":"23647600@N06","authorname":"phudd23","raw":"Tanna","_content":"tanna","machine_tag":0},{"id":"23602278-30086360994-215864","author":"23647600@N06","authorname":"phudd23","raw":"Vanuatu","_content":"vanuatu","machine_tag":0}]},"location":{"latitude":"-19.475137","longitude":"169.231269","accuracy":"11","context":"0","locality":{"_content":"Lenakel","place_id":".hJ0F2RQUr._Nu1y","woeid":"1050910"},"region":{"_content":"Tafea","place_id":"T5P5HX5TUrokKp9RSw","woeid":"20069887"},"country":{"_content":"Vanuatu","place_id":"dhMgLLZTUb546wzOYA","woeid":"23424907"},"place_id":".hJ0F2RQUr._Nu1y","woeid":"1050910"},"geoperms":{"ispublic":1,"iscontact":0,"isfriend":0,"isfamily":0},"urls":{"url":[{"type":"photopage","_content":"https:\u005c/\u005c/www.flickr.com\u005c/photos\u005c/23647600@N06\u005c/30086360994\u005c/"}]},"media":"photo"},"stat":"ok"})
p4
sS'https://api.flickr.com/services/rest/?format=json&method=flickr.photos.getInfo&per_page=50&photo_id=30084237603&tag_mode=all&tags=sunset'
p5
VjsonFlickrApi({"photo":{"id":"30084237603","secret":"9be255dfa7","server":"5454","farm":6,"dateuploaded":"1478032211","isfavorite":0,"license":"0","safety_level":"0","rotation":0,"originalsecret":"611e294c47","originalformat":"jpg","owner":{"nsid":"25834184@N04","username":"Walter Johannesen","realname":"Walter Johannesen","location":"Hobro, Denmark","iconserver":"7525","iconfarm":8,"path_alias":"walter_johannesen"},"title":{"_content":"Eftermiddag ved Ferring Strand"},"description":{"_content":""},"visibility":{"ispublic":1,"isfriend":0,"isfamily":0},"dates":{"posted":"1478032211","taken":"2016-11-01 17:00:16","takengranularity":"0","takenunknown":"0","lastupdate":"1478033921"},"views":"66","editability":{"cancomment":0,"canaddmeta":0},"publiceditability":{"cancomment":1,"canaddmeta":0},"usage":{"candownload":1,"canblog":0,"canprint":0,"canshare":1},"comments":{"_content":"0"},"notes":{"note":[]},"people":{"haspeople":0},"tags":{"tag":[{"id":"25802045-30084237603-2654649","author":"25834184@N04","authorname":"Walter Johannesen","raw":"Bovbjerg","_content":"bovbjerg","machine_tag":0},{"id":"25802045-30084237603-1225306","author":"25834184@N04","authorname":"Walter Johannesen","raw":"efter\u005cu00e5r","_content":"efter\u005cu00e5r","machine_tag":0},{"id":"25802045-30084237603-1260216","author":"25834184@N04","authorname":"Walter Johannesen","raw":"Ferring","_content":"ferring","machine_tag":0},{"id":"25802045-30084237603-1237","author":"25834184@N04","authorname":"Walter Johannesen","raw":"Strand","_content":"strand","machine_tag":0},{"id":"25802045-30084237603-704","author":"25834184@N04","authorname":"Walter Johannesen","raw":"Beach","_content":"beach","machine_tag":0},{"id":"25802045-30084237603-258514","author":"25834184@N04","authorname":"Walter Johannesen","raw":"kyst","_content":"kyst","machine_tag":0},{"id":"25802045-30084237603-2143","author":"25834184@N04","authorname":"Walter Johannesen","raw":"coast","_content":"coast","machine_tag":0},{"id":"25802045-30084237603-223","author":"25834184@N04","authorname":"Walter Johannesen","raw":"sunset","_content":"sunset","machine_tag":0},{"id":"25802045-30084237603-3707","author":"25834184@N04","authorname":"Walter Johannesen","raw":"afternoon","_content":"afternoon","machine_tag":0},{"id":"25802045-30084237603-3699007","author":"25834184@N04","authorname":"Walter Johannesen","raw":"eftermiddag","_content":"eftermiddag","machine_tag":0},{"id":"25802045-30084237603-122755","author":"25834184@N04","authorname":"Walter Johannesen","raw":"solnedgang","_content":"solnedgang","machine_tag":0},{"id":"25802045-30084237603-86820","author":"25834184@N04","authorname":"Walter Johannesen","raw":"skyer","_content":"skyer","machine_tag":0},{"id":"25802045-30084237603-3562","author":"25834184@N04","authorname":"Walter Johannesen","raw":"skies","_content":"skies","machine_tag":0}]},"location":{"latitude":"56.534772","longitude":"8.117673","accuracy":"15","context":"0","locality":{"_content":"Orum","place_id":"lY5JhptTW7nzk3GbjA","woeid":"29306412"},"county":{"_content":"Lemvig","place_id":"o25VybRQUL_DgkwJHQ","woeid":"12582769"},"region":{"_content":"Midtjylland","place_id":"qwVZEixTWrnxfsiP9w","woeid":"28362580"},"country":{"_content":"Denmark","place_id":"wzcKZZdTUb7wa1WOFw","woeid":"23424796"},"place_id":"lY5JhptTW7nzk3GbjA","woeid":"29306412"},"geoperms":{"ispublic":1,"iscontact":0,"isfriend":0,"isfamily":0},"urls":{"url":[{"type":"photopage","_content":"https:\u005c/\u005c/www.flickr.com\u005c/photos\u005c/walter_johannesen\u005c/30084237603\u005c/"}]},"media":"photo"},"stat":"ok"})
p6
sS'https://api.flickr.com/services/rest/?api_key=01fab8a5716b2b52e211eee28314cbb6&format=json&method=flickr.photos.search&per_page=50&tag_mode=all&tags=sunset'
p7
V{"photos":{"page":1,"pages":9220,"perpage":50,"total":"460995","photo":[{"id":"30718936245","owner":"25834184@N04","secret":"54e0d96ddd","server":"5652","farm":6,"title":"Eftermiddag ved Ferring Strand 02 BW","ispublic":1,"isfriend":0,"isfamily":0},{"id":"30682032796","owner":"25834184@N04","secret":"6812f844a1","server":"5448","farm":6,"title":"Eftermiddag ved Ferring Strand 02","ispublic":1,"isfriend":0,"isfamily":0},{"id":"30084237603","owner":"25834184@N04","secret":"9be255dfa7","server":"5454","farm":6,"title":"Eftermiddag ved Ferring Strand","ispublic":1,"isfriend":0,"isfamily":0},{"id":"30630444391","owner":"51935476@N07","secret":"65305d8eaf","server":"5804","farm":6,"title":"Rhine Evening","ispublic":1,"isfriend":0,"isfamily":0},{"id":"30418235690","owner":"144579656@N06","secret":"6aa4c5444a","server":"5669","farm":6,"title":"","ispublic":1,"isfriend":0,"isfamily":0},{"id":"30681951376","owner":"146282755@N04","secret":"e8882109fa","server":"5780","farm":6,"title":"Bateau","ispublic":1,"isfriend":0,"isfamily":0},{"id":"30681936136","owner":"136138189@N08","secret":"14d0260457","server":"5491","farm":6,"title":"Tramonto dal sentiero 1 - Alta Via delle Cinque Terre","ispublic":1,"isfriend":0,"isfamily":0},{"id":"30601857312","owner":"30366721@N07","secret":"6e4362b416","server":"5515","farm":6,"title":"","ispublic":1,"isfriend":0,"isfamily":0},{"id":"30681904126","owner":"57790460@N04","secret":"6560a4b1d1","server":"5339","farm":6,"title":"Bord de Loire dans la Ni\u005cu00e8vre","ispublic":1,"isfriend":0,"isfamily":0},{"id":"30630305001","owner":"57790460@N04","secret":"c702dfdae4","server":"5450","farm":6,"title":"Bord de Loire dans la Ni\u005cu00e8vre","ispublic":1,"isfriend":0,"isfamily":0},{"id":"30086360994","owner":"23647600@N06","secret":"13da2e8a22","server":"5824","farm":6,"title":"Tanna, Vanuatu","ispublic":1,"isfriend":0,"isfamily":0},{"id":"30630258871","owner":"23647600@N06","secret":"63e8fd4d61","server":"5549","farm":6,"title":"Tanna, Vanuatu","ispublic":1,"isfriend":0,"isfamily":0},{"id":"30084081303","owner":"61543242@N05","secret":"6e900d0558","server":"5349","farm":6,"title":"sunset","ispublic":1,"isfriend":0,"isfamily":0},{"id":"30630178101","owner":"126050329@N06","secret":"19cc849576","server":"5742","farm":6,"title":"2","ispublic":1,"isfriend":0,"isfamily":0},{"id":"30630177031","owner":"126050329@N06","secret":"dcd298d1a5","server":"5813","farm":6,"title":"3","ispublic":1,"isfriend":0,"isfamily":0},{"id":"30470262012","owner":"7156765@N05","secret":"9dbf11ef35","server":"8681","farm":9,"title":"Ottawa Ontario Canada ~ Parliament Hill and  Library ~ Historical Site","ispublic":1,"isfriend":0,"isfamily":0},{"id":"30601789922","owner":"104902738@N08","secret":"9ef5c5b9f0","server":"5541","farm":6,"title":"Tramonto in Costiera Amalfitana 01\u005c/11\u005c/2016","ispublic":1,"isfriend":0,"isfamily":0},{"id":"30418154660","owner":"144579656@N06","secret":"89c2aeff5e","server":"5567","farm":6,"title":"","ispublic":1,"isfriend":0,"isfamily":0},{"id":"30418152600","owner":"104902738@N08","secret":"4e3b2efc33","server":"5595","farm":6,"title":"Tramonto in Costiera Amalfitana 01\u005c/11\u005c/2016","ispublic":1,"isfriend":0,"isfamily":0},{"id":"30681876086","owner":"13361224@N03","secret":"c481c3d452","server":"5500","farm":6,"title":"Stranded on the beach","ispublic":1,"isfriend":0,"isfamily":0},{"id":"30630205731","owner":"144579656@N06","secret":"afb62138e5","server":"5783","farm":6,"title":"","ispublic":1,"isfriend":0,"isfamily":0},{"id":"30630190451","owner":"75201823@N05","secret":"56677c8e58","server":"5325","farm":6,"title":"end of the day","ispublic":1,"isfriend":0,"isfamily":0},{"id":"30418075560","owner":"144579656@N06","secret":"b2d7fd22aa","server":"5794","farm":6,"title":"","ispublic":1,"isfriend":0,"isfamily":0},{"id":"30086267414","owner":"48468275@N06","secret":"eaf0656147","server":"5470","farm":6,"title":"DSC04512","ispublic":1,"isfriend":0,"isfamily":0},{"id":"30718647745","owner":"65800435@N06","secret":"89e5225fe7","server":"5724","farm":6,"title":"Fortezza di San Leo.","ispublic":1,"isfriend":0,"isfamily":0},{"id":"30418046450","owner":"127742200@N05","secret":"d004cbc76f","server":"5462","farm":6,"title":"","ispublic":1,"isfriend":0,"isfamily":0},{"id":"30418044560","owner":"145180945@N07","secret":"1117e7b0c7","server":"5515","farm":6,"title":"Difficult roads often lead to beautiful places","ispublic":1,"isfriend":0,"isfamily":0},{"id":"30630094701","owner":"142594009@N04","secret":"4607ef3df8","server":"5452","farm":6,"title":"Lazise - 10\u005c/22","ispublic":1,"isfriend":0,"isfamily":0},{"id":"30681765456","owner":"136249946@N08","secret":"fdf5c0d12f","server":"5590","farm":6,"title":"Autumn forest","ispublic":1,"isfriend":0,"isfamily":0},{"id":"30630093291","owner":"142594009@N04","secret":"8647c27dc4","server":"5802","farm":6,"title":"Lazise - 10\u005c/22","ispublic":1,"isfriend":0,"isfamily":0},{"id":"30418032740","owner":"142594009@N04","secret":"2d486ba7f0","server":"5765","farm":6,"title":"Lazise - 10\u005c/22","ispublic":1,"isfriend":0,"isfamily":0},{"id":"30630090441","owner":"142594009@N04","secret":"5b4c0f65aa","server":"5544","farm":6,"title":"Lazise - 10\u005c/22","ispublic":1,"isfriend":0,"isfamily":0},{"id":"30418030390","owner":"142594009@N04","secret":"2d21d13b54","server":"5704","farm":6,"title":"Lazise - 10\u005c/22","ispublic":1,"isfriend":0,"isfamily":0},{"id":"30083985503","owner":"144579656@N06","secret":"34d24c633a","server":"5701","farm":6,"title":"","ispublic":1,"isfriend":0,"isfamily":0},{"id":"30630087561","owner":"142594009@N04","secret":"e49bd7f32a","server":"5524","farm":6,"title":"Lazise - 10\u005c/22","ispublic":1,"isfriend":0,"isfamily":0},{"id":"30418025180","owner":"142594009@N04","secret":"81b2f7b3e0","server":"5537","farm":6,"title":"Lazise - 10\u005c/22","ispublic":1,"isfriend":0,"isfamily":0},{"id":"30418023920","owner":"142594009@N04","secret":"b25c9a4a45","server":"5655","farm":6,"title":"Lazise - 10\u005c/22","ispublic":1,"isfriend":0,"isfamily":0},{"id":"30718613765","owner":"142594009@N04","secret":"7b8cffa6d3","server":"5584","farm":6,"title":"Lazise - 10\u005c/22","ispublic":1,"isfriend":0,"isfamily":0},{"id":"30718612745","owner":"142594009@N04","secret":"8f95365123","server":"5836","farm":6,"title":"Lazise - 10\u005c/22","ispublic":1,"isfriend":0,"isfamily":0},{"id":"30718611465","owner":"142594009@N04","secret":"8412afd958","server":"5784","farm":6,"title":"Lazise - 10\u005c/22","ispublic":1,"isfriend":0,"isfamily":0},{"id":"30718609145","owner":"142594009@N04","secret":"684b34a26f","server":"5578","farm":6,"title":"Lazise - 10\u005c/22","ispublic":1,"isfriend":0,"isfamily":0},{"id":"30086194764","owner":"142594009@N04","secret":"2ea8cab633","server":"5516","farm":6,"title":"Lazise - 10\u005c/22","ispublic":1,"isfriend":0,"isfamily":0},{"id":"30718606635","owner":"142594009@N04","secret":"eb375cd19b","server":"5532","farm":6,"title":"Lazise - 10\u005c/22","ispublic":1,"isfriend":0,"isfamily":0},{"id":"30718604335","owner":"142594009@N04","secret":"89489d57c2","server":"5524","farm":6,"title":"Lazise - 10\u005c/22","ispublic":1,"isfriend":0,"isfamily":0},{"id":"30718601155","owner":"142594009@N04","secret":"db20c6089b","server":"5626","farm":6,"title":"Lazise - 10\u005c/22","ispublic":1,"isfriend":0,"isfamily":0},{"id":"30601679892","owner":"142594009@N04","secret":"0b7a49a6f6","server":"5698","farm":6,"title":"Lazise - 10\u005c/22","ispublic":1,"isfriend":0,"isfamily":0},{"id":"30086181204","owner":"142594009@N04","secret":"dbabfd581d","server":"5716","farm":6,"title":"Lazise - 10\u005c/22","ispublic":1,"isfriend":0,"isfamily":0},{"id":"30086115314","owner":"26251240@N08","secret":"153668b474","server":"5719","farm":6,"title":"Matajur","ispublic":1,"isfriend":0,"isfamily":0},{"id":"30630002941","owner":"26251240@N08","secret":"09a6ff2753","server":"5331","farm":6,"title":"Matajur","ispublic":1,"isfriend":0,"isfamily":0},{"id":"30681668086","owner":"26251240@N08","secret":"85a3e97182","server":"5545","farm":6,"title":"Matajur","ispublic":1,"isfriend":0,"isfamily":0}]},"stat":"ok"}
p8
sS'https://api.flickr.com/services/rest/?format=json&method=flickr.photos.getInfo&per_page=50&photo_id=30630190451&tag_mode=all&tags=sunset'
p9
VjsonFlickrApi({"photo":{"id":"30630190451","secret":"56677c8e58","server":"5325","farm":6,"dateuploaded":"1478031494","isfavorite":0,"license":"0","safety_level":"0","rotation":0,"owner":{"nsid":"75201823@N05","username":"ffoster","realname":"Frank Foster","location":"APPLE VALLEY, USA","iconserver":"7396","iconfarm":8,"path_alias":"frankfoster"},"title":{"_content":"end of the day"},"description":{"_content":"Joshua Tree National Park, California"},"visibility":{"ispublic":1,"isfriend":0,"isfamily":0},"dates":{"posted":"1478031494","taken":"2016-10-30 08:20:38","takengranularity":"0","takenunknown":"0","lastupdate":"1505758593"},"views":"363","editability":{"cancomment":0,"canaddmeta":0},"publiceditability":{"cancomment":1,"canaddmeta":0},"usage":{"candownload":0,"canblog":0,"canprint":0,"canshare":0},"comments":{"_content":"4"},"notes":{"note":[]},"people":{"haspeople":0},"tags":{"tag":[{"id":"75196483-30630190451-238429","author":"75201823@N05","authorname":"ffoster","raw":"Joshuatreenationalpark","_content":"joshuatreenationalpark","machine_tag":0},{"id":"75196483-30630190451-222476","author":"75201823@N05","authorname":"ffoster","raw":"rockformation","_content":"rockformation","machine_tag":0},{"id":"75196483-30630190451-223","author":"75201823@N05","authorname":"ffoster","raw":"sunset","_content":"sunset","machine_tag":0},{"id":"75196483-30630190451-1223","author":"75201823@N05","authorname":"ffoster","raw":"clouds","_content":"clouds","machine_tag":0},{"id":"75196483-30630190451-293","author":"75201823@N05","authorname":"ffoster","raw":"black and white","_content":"blackandwhite","machine_tag":0},{"id":"75196483-30630190451-252902004","author":"75201823@N05","authorname":"ffoster","raw":"sigmaquattrodp0","_content":"sigmaquattrodp0","machine_tag":0},{"id":"75196483-30630190451-1695","author":"75201823@N05","authorname":"ffoster","raw":"landscape","_content":"landscape","machine_tag":0},{"id":"75196483-30630190451-8540177","author":"75201823@N05","authorname":"ffoster","raw":"frankfoster","_content":"frankfoster","machine_tag":0}]},"urls":{"url":[{"type":"photopage","_content":"https:\u005c/\u005c/www.flickr.com\u005c/photos\u005c/frankfoster\u005c/30630190451\u005c/"}]},"media":"photo"},"stat":"ok"})
p10
sS'https://api.flickr.com/services/rest/?format=json&method=flickr.photos.getInfo&per_page=50&photo_id=30470262012&tag_mode=all&tags=sunset'
p11
VjsonFlickrApi({"photo":{"id":"30470262012","secret":"9dbf11ef35","server":"8681","farm":9,"dateuploaded":"1478032140","isfavorite":0,"license":"1","safety_level":"0","rotation":0,"originalsecret":"a82cf8473b","originalformat":"jpg","owner":{"nsid":"7156765@N05","username":"Onasill ~ Bill Badzo","realname":"Onasill ~ Bill  Badzo","location":"Toronto, Ontario, Canada","iconserver":"2544","iconfarm":3,"path_alias":"onasill"},"title":{"_content":"Ottawa Ontario Canada ~ Parliament Hill and  Library ~ Historical Site"},"description":{"_content":"Three Gothic Revival-style buildings, located on a 170-foot bluff overlooking the Ottawa River, house the offices of the members of Parliament, the House of Commons and the Senate. Free guided tours delve into Canadian history and explain the workings of the political system."},"visibility":{"ispublic":1,"isfriend":0,"isfamily":0},"dates":{"posted":"1478032140","taken":"2014-07-19 11:54:29","takengranularity":"0","takenunknown":"0","lastupdate":"1478554658"},"views":"5510","editability":{"cancomment":0,"canaddmeta":0},"publiceditability":{"cancomment":1,"canaddmeta":1},"usage":{"candownload":1,"canblog":0,"canprint":0,"canshare":1},"comments":{"_content":"89"},"notes":{"note":[]},"people":{"haspeople":0},"tags":{"tag":[{"id":"7151425-30470262012-10199635","author":"7156765@N05","authorname":"Onasill ~ Bill Badzo","raw":"18-250mm","_content":"18250mm","machine_tag":false},{"id":"7151425-30470262012-6132","author":"7156765@N05","authorname":"Onasill ~ Bill Badzo","raw":"Ottawa","_content":"ottawa","machine_tag":false},{"id":"7151425-30470262012-223046","author":"7156765@N05","authorname":"Onasill ~ Bill Badzo","raw":"On","_content":"on","machine_tag":false},{"id":"7151425-30470262012-450","author":"7156765@N05","authorname":"Onasill ~ Bill Badzo","raw":"Ontario","_content":"ontario","machine_tag":false},{"id":"7151425-30470262012-10556","author":"7156765@N05","authorname":"Onasill ~ Bill Badzo","raw":"Historic","_content":"historic","machine_tag":false},{"id":"7151425-30470262012-2436","author":"7156765@N05","authorname":"Onasill ~ Bill Badzo","raw":"Site","_content":"site","machine_tag":false},{"id":"7151425-30470262012-45648","author":"7156765@N05","authorname":"Onasill ~ Bill Badzo","raw":"Federal","_content":"federal","machine_tag":false},{"id":"7151425-30470262012-19479","author":"7156765@N05","authorname":"Onasill ~ Bill Badzo","raw":"Government","_content":"government","machine_tag":false},{"id":"7151425-30470262012-1399","author":"7156765@N05","authorname":"Onasill ~ Bill Badzo","raw":"Buildings","_content":"buildings","machine_tag":false},{"id":"7151425-30470262012-1174","author":"7156765@N05","authorname":"Onasill ~ Bill Badzo","raw":"Architecture","_content":"architecture","machine_tag":false},{"id":"7151425-30470262012-8241","author":"7156765@N05","authorname":"Onasill ~ Bill Badzo","raw":"Style","_content":"style","machine_tag":false},{"id":"7151425-30470262012-6680","author":"7156765@N05","authorname":"Onasill ~ Bill Badzo","raw":"Gothic","_content":"gothic","machine_tag":false},{"id":"7151425-30470262012-7334","author":"7156765@N05","authorname":"Onasill ~ Bill Badzo","raw":"Victorian","_content":"victorian","machine_tag":false},{"id":"7151425-30470262012-5702","author":"7156765@N05","authorname":"Onasill ~ Bill Badzo","raw":"Library","_content":"library","machine_tag":false},{"id":"7151425-30470262012-1075","author":"7156765@N05","authorname":"Onasill ~ Bill Badzo","raw":"Gardens","_content":"gardens","machine_tag":false},{"id":"7151425-30470262012-609","author":"7156765@N05","authorname":"Onasill ~ Bill Badzo","raw":"Heritage","_content":"heritage","machine_tag":false},{"id":"7151425-30470262012-35669","author":"7156765@N05","authorname":"Onasill ~ Bill Badzo","raw":"Tours","_content":"tours","machine_tag":false},{"id":"7151425-30470262012-79995","author":"7156765@N05","authorname":"Onasill ~ Bill Badzo","raw":"Attraction","_content":"attraction","machine_tag":false},{"id":"7151425-30470262012-121","author":"7156765@N05","authorname":"Onasill ~ Bill Badzo","raw":"Travel","_content":"travel","machine_tag":false},{"id":"7151425-30470262012-8525","author":"7156765@N05","authorname":"Onasill ~ Bill Badzo","raw":"Parliament","_content":"parliament","machine_tag":false},{"id":"7151425-30470262012-6463","author":"7156765@N05","authorname":"Onasill ~ Bill Badzo","raw":"Hill","_content":"hill","machine_tag":false},{"id":"7151425-30470262012-54444374","author":"7156765@N05","authorname":"Onasill ~ Bill Badzo","raw":"Onasill","_content":"onasill","machine_tag":false},{"id":"7151425-30470262012-1382","author":"7156765@N05","authorname":"Onasill ~ Bill Badzo","raw":"Canon","_content":"canon","machine_tag":false},{"id":"7151425-30470262012-1973","author":"7156765@N05","authorname":"Onasill ~ Bill Badzo","raw":"Rebel","_content":"rebel","machine_tag":false},{"id":"7151425-30470262012-1966","author":"7156765@N05","authorname":"Onasill ~ Bill Badzo","raw":"EOS","_content":"eos","machine_tag":false},{"id":"7151425-30470262012-88933","author":"7156765@N05","authorname":"Onasill ~ Bill Badzo","raw":"SL1","_content":"sl1","machine_tag":false},{"id":"7151425-30470262012-7065288","author":"7156765@N05","authorname":"Onasill ~ Bill Badzo","raw":"D1000","_content":"d1000","machine_tag":false},{"id":"7151425-30470262012-93","author":"7156765@N05","authorname":"Onasill ~ Bill Badzo","raw":"Camera","_content":"camera","machine_tag":false},{"id":"7151425-30470262012-56210","author":"7156765@N05","authorname":"Onasill ~ Bill Badzo","raw":"HDR","_content":"hdr","machine_tag":false},{"id":"7151425-30470262012-8237","author":"7156765@N05","authorname":"Onasill ~ Bill Badzo","raw":"Sigma","_content":"sigma","machine_tag":false},{"id":"7151425-30470262012-551","author":"7156765@N05","authorname":"Onasill ~ Bill Badzo","raw":"Macro","_content":"macro","machine_tag":false},{"id":"7151425-30470262012-1223","author":"7156765@N05","authorname":"Onasill ~ Bill Badzo","raw":"Clouds","_content":"clouds","machine_tag":false},{"id":"7151425-30470262012-282","author":"7156765@N05","authorname":"Onasill ~ Bill Badzo","raw":"Sky","_content":"sky","machine_tag":false},{"id":"7151425-30470262012-223","author":"7156765@N05","authorname":"Onasill ~ Bill Badzo","raw":"Sunset","_content":"sunset","machine_tag":false},{"id":"7151425-30470262012-2094603","author":"7156765@N05","authorname":"Onasill ~ Bill Badzo","raw":"NRHP","_content":"nrhp","machine_tag":0},{"id":"7151425-30470262012-23443","author":"7156765@N05","authorname":"Onasill ~ Bill Badzo","raw":"Register","_content":"register","machine_tag":0},{"id":"7151425-30470262012-553","author":"7156765@N05","authorname":"Onasill ~ Bill Badzo","raw":"Building","_content":"building","machine_tag":false},{"id":"7151425-30470262012-60288113","author":"7156765@N05","authorname":"Onasill ~ Bill Badzo","raw":"CanadaCapitol","_content":"canadacapitol","machine_tag":0}]},"location":{"latitude":"45.434131","longitude":"-75.692281","accuracy":"13","context":"0","neighbourhood":{"_content":"Lower Town","place_id":"oMSvbl5YU7MJVzAK.Q","woeid":"91978353"},"locality":{"_content":"Ottawa","place_id":"qaSDTB1YU7P1GQ_x6g","woeid":"91982014"},"county":{"_content":"Ottawa","place_id":"1kUtG6dTW7lcFZ6tVw","woeid":"29375164"},"region":{"_content":"Ontario","place_id":"KAOZv3VTUb6vc1Fc","woeid":"2344922"},"country":{"_content":"Canada","place_id":"b9iFoOpTUb6KZ3MPGQ","woeid":"23424775"},"place_id":"oMSvbl5YU7MJVzAK.Q","woeid":"91978353"},"geoperms":{"ispublic":1,"iscontact":0,"isfriend":0,"isfamily":0},"urls":{"url":[{"type":"photopage","_content":"https:\u005c/\u005c/www.flickr.com\u005c/photos\u005c/onasill\u005c/30470262012\u005c/"}]},"media":"photo"},"stat":"ok"})
p12
sS'https://api.flickr.com/services/rest/?format=json&method=flickr.photos.getInfo&per_page=50&photo_id=30418154660&tag_mode=all&tags=sunset'
p13
VjsonFlickrApi({"stat":"fail","code":1,"message":"Photo \u005c"30418154660\u005c" not found (invalid ID)"})
p14
sS'https://api.flickr.com/services/rest/?format=json&method=flickr.photos.getInfo&per_page=50&photo_id=30630087561&tag_mode=all&tags=sunset'
p15
VjsonFlickrApi({"photo":{"id":"30630087561","secret":"e49bd7f32a","server":"5524","farm":6,"dateuploaded":"1478031136","isfavorite":0,"license":"0","safety_level":"0","rotation":0,"originalsecret":"4892610142","originalformat":"jpg","owner":{"nsid":"142594009@N04","username":"TheAnthonyBrooks","realname":"Anthony Brooks","location":"","iconserver":"7427","iconfarm":8,"path_alias":"theanthonybrooks"},"title":{"_content":"Lazise - 10\u005c/22"},"description":{"_content":""},"visibility":{"ispublic":1,"isfriend":0,"isfamily":0},"dates":{"posted":"1478031136","taken":"2016-10-22 08:02:29","takengranularity":"0","takenunknown":"0","lastupdate":"1478031147"},"views":"14","editability":{"cancomment":0,"canaddmeta":0},"publiceditability":{"cancomment":1,"canaddmeta":0},"usage":{"candownload":1,"canblog":0,"canprint":0,"canshare":1},"comments":{"_content":"0"},"notes":{"note":[]},"people":{"haspeople":0},"tags":{"tag":[{"id":"142561870-30630087561-288814","author":"142594009@N04","authorname":"TheAnthonyBrooks","raw":"Lazise","_content":"lazise","machine_tag":0},{"id":"142561870-30630087561-297","author":"142594009@N04","authorname":"TheAnthonyBrooks","raw":"Italy","_content":"italy","machine_tag":0},{"id":"142561870-30630087561-3272","author":"142594009@N04","authorname":"TheAnthonyBrooks","raw":"Europe","_content":"europe","machine_tag":0},{"id":"142561870-30630087561-400","author":"142594009@N04","authorname":"TheAnthonyBrooks","raw":"Lake","_content":"lake","machine_tag":0},{"id":"142561870-30630087561-3140","author":"142594009@N04","authorname":"TheAnthonyBrooks","raw":"Garda","_content":"garda","machine_tag":0},{"id":"142561870-30630087561-223","author":"142594009@N04","authorname":"TheAnthonyBrooks","raw":"Sunset","_content":"sunset","machine_tag":0},{"id":"142561870-30630087561-1783","author":"142594009@N04","authorname":"TheAnthonyBrooks","raw":"Boats","_content":"boats","machine_tag":0},{"id":"142561870-30630087561-791","author":"142594009@N04","authorname":"TheAnthonyBrooks","raw":"Nature","_content":"nature","machine_tag":0},{"id":"142561870-30630087561-1174","author":"142594009@N04","authorname":"TheAnthonyBrooks","raw":"Architecture","_content":"architecture","machine_tag":0},{"id":"142561870-30630087561-1312","author":"142594009@N04","authorname":"TheAnthonyBrooks","raw":"Port","_content":"port","machine_tag":0},{"id":"142561870-30630087561-298853180","author":"142594009@N04","authorname":"TheAnthonyBrooks","raw":"SketchyTravels","_content":"sketchytravels","machine_tag":0},{"id":"142561870-30630087561-121","author":"142594009@N04","authorname":"TheAnthonyBrooks","raw":"Travel","_content":"travel","machine_tag":0}]},"urls":{"url":[{"type":"photopage","_content":"https:\u005c/\u005c/www.flickr.com\u005c/photos\u005c/theanthonybrooks\u005c/30630087561\u005c/"}]},"media":"photo"},"stat":"ok"})
p16
sS'https://api.flickr.com/services/rest/?format=json&method=flickr.photos.getInfo&per_page=50&photo_id=30630093291&tag_mode=all&tags=sunset'
p17
VjsonFlickrApi({"photo":{"id":"30630093291","secret":"8647c27dc4","server":"5802","farm":6,"dateuploaded":"1478031134","isfavorite":0,"license":"0","safety_level":"0","rotation":0,"originalsecret":"7edace62a2","originalformat":"jpg","owner":{"nsid":"142594009@N04","username":"TheAnthonyBrooks","realname":"Anthony Brooks","location":"","iconserver":"7427","iconfarm":8,"path_alias":"theanthonybrooks"},"title":{"_content":"Lazise - 10\u005c/22"},"description":{"_content":""},"visibility":{"ispublic":1,"isfriend":0,"isfamily":0},"dates":{"posted":"1478031134","taken":"2016-10-22 07:22:26","takengranularity":"0","takenunknown":"0","lastupdate":"1478031147"},"views":"15","editability":{"cancomment":0,"canaddmeta":0},"publiceditability":{"cancomment":1,"canaddmeta":0},"usage":{"candownload":1,"canblog":0,"canprint":0,"canshare":1},"comments":{"_content":"0"},"notes":{"note":[]},"people":{"haspeople":0},"tags":{"tag":[{"id":"142561870-30630093291-288814","author":"142594009@N04","authorname":"TheAnthonyBrooks","raw":"Lazise","_content":"lazise","machine_tag":0},{"id":"142561870-30630093291-297","author":"142594009@N04","authorname":"TheAnthonyBrooks","raw":"Italy","_content":"italy","machine_tag":0},{"id":"142561870-30630093291-3272","author":"142594009@N04","authorname":"TheAnthonyBrooks","raw":"Europe","_content":"europe","machine_tag":0},{"id":"142561870-30630093291-400","author":"142594009@N04","authorname":"TheAnthonyBrooks","raw":"Lake","_content":"lake","machine_tag":0},{"id":"142561870-30630093291-3140","author":"142594009@N04","authorname":"TheAnthonyBrooks","raw":"Garda","_content":"garda","machine_tag":0},{"id":"142561870-30630093291-223","author":"142594009@N04","authorname":"TheAnthonyBrooks","raw":"Sunset","_content":"sunset","machine_tag":0},{"id":"142561870-30630093291-1783","author":"142594009@N04","authorname":"TheAnthonyBrooks","raw":"Boats","_content":"boats","machine_tag":0},{"id":"142561870-30630093291-791","author":"142594009@N04","authorname":"TheAnthonyBrooks","raw":"Nature","_content":"nature","machine_tag":0},{"id":"142561870-30630093291-1174","author":"142594009@N04","authorname":"TheAnthonyBrooks","raw":"Architecture","_content":"architecture","machine_tag":0},{"id":"142561870-30630093291-1312","author":"142594009@N04","authorname":"TheAnthonyBrooks","raw":"Port","_content":"port","machine_tag":0},{"id":"142561870-30630093291-298853180","author":"142594009@N04","authorname":"TheAnthonyBrooks","raw":"SketchyTravels","_content":"sketchytravels","machine_tag":0},{"id":"142561870-30630093291-121","author":"142594009@N04","authorname":"TheAnthonyBrooks","raw":"Travel","_content":"travel","machine_tag":0}]},"urls":{"url":[{"type":"photopage","_content":"https:\u005c/\u005c/www.flickr.com\u005c/photos\u005c/theanthonybrooks\u005c/30630093291\u005c/"}]},"media":"photo"},"stat":"ok"})
p18
sS'https://api.flickr.com/services/rest/?format=json&method=flickr.photos.getInfo&per_page=50&photo_id=30084081303&tag_mode=all&tags=sunset'
p19
VjsonFlickrApi({"photo":{"id":"30084081303","secret":"6e900d0558","server":"5349","farm":6,"dateuploaded":"1478031679","isfavorite":0,"license":"0","safety_level":"0","rotation":0,"originalsecret":"cf574f9fac","originalformat":"jpg","owner":{"nsid":"61543242@N05","username":"Ha-Jue","realname":"","location":"Germany","iconserver":"7318","iconfarm":8,"path_alias":"hajue67"},"title":{"_content":"sunset"},"description":{"_content":""},"visibility":{"ispublic":1,"isfriend":0,"isfamily":0},"dates":{"posted":"1478031679","taken":"2016-07-21 20:39:21","takengranularity":"0","takenunknown":"0","lastupdate":"1492848733"},"views":"883","editability":{"cancomment":0,"canaddmeta":0},"publiceditability":{"cancomment":1,"canaddmeta":0},"usage":{"candownload":1,"canblog":0,"canprint":0,"canshare":0},"comments":{"_content":"0"},"notes":{"note":[]},"people":{"haspeople":0},"tags":{"tag":[{"id":"61537902-30084081303-223","author":"61543242@N05","authorname":"Ha-Jue","raw":"sunset","_content":"sunset","machine_tag":0},{"id":"61537902-30084081303-3806","author":"61543242@N05","authorname":"Ha-Jue","raw":"Sonnenuntergang","_content":"sonnenuntergang","machine_tag":0},{"id":"61537902-30084081303-9730","author":"61543242@N05","authorname":"Ha-Jue","raw":"Norderney","_content":"norderney","machine_tag":0},{"id":"61537902-30084081303-32832","author":"61543242@N05","authorname":"Ha-Jue","raw":"evening sky","_content":"eveningsky","machine_tag":0},{"id":"61537902-30084081303-48229766","author":"61543242@N05","authorname":"Ha-Jue","raw":"Sigma 24-105","_content":"sigma24105","machine_tag":0},{"id":"61537902-30084081303-97700859","author":"61543242@N05","authorname":"Ha-Jue","raw":"Sony a99","_content":"sonya99","machine_tag":0}]},"location":{"latitude":"53.714988","longitude":"7.154786","accuracy":"16","context":"0","locality":{"_content":"Norderney","place_id":"MXCiQmlXWrprFbs","woeid":"680356"},"county":{"_content":"Landkreis Aurich","place_id":"yN.eTCZQUL._c8iCVA","woeid":"12596721"},"region":{"_content":"Lower Saxony","place_id":"ul2d17NTUb4lkTA_","woeid":"2345486"},"country":{"_content":"Germany","place_id":"h7eZVDlTUb50Btij9Q","woeid":"23424829"},"place_id":"MXCiQmlXWrprFbs","woeid":"680356"},"geoperms":{"ispublic":1,"iscontact":0,"isfriend":0,"isfamily":0},"urls":{"url":[{"type":"photopage","_content":"https:\u005c/\u005c/www.flickr.com\u005c/photos\u005c/hajue67\u005c/30084081303\u005c/"}]},"media":"photo"},"stat":"ok"})
p20
sS'https://api.flickr.com/services/rest/?format=json&method=flickr.photos.getInfo&per_page=50&photo_id=30718647745&tag_mode=all&tags=sunset'
p21
VjsonFlickrApi({"photo":{"id":"30718647745","secret":"89e5225fe7","server":"5724","farm":6,"dateuploaded":"1478031194","isfavorite":0,"license":"0","safety_level":"0","rotation":0,"owner":{"nsid":"65800435@N06","username":"Luca Lag\u005cu00f2","realname":"Luca Lag\u005cu00f2","location":"","iconserver":"3905","iconfarm":4,"path_alias":"lucapictures"},"title":{"_content":"Fortezza di San Leo."},"description":{"_content":""},"visibility":{"ispublic":1,"isfriend":0,"isfamily":0},"dates":{"posted":"1478031194","taken":"2016-11-01 21:13:14","takengranularity":0,"takenunknown":"1","lastupdate":"1501079573"},"views":"98","editability":{"cancomment":0,"canaddmeta":0},"publiceditability":{"cancomment":1,"canaddmeta":0},"usage":{"candownload":0,"canblog":0,"canprint":0,"canshare":1},"comments":{"_content":"0"},"notes":{"note":[]},"people":{"haspeople":0},"tags":{"tag":[{"id":"65755113-30718647745-13128","author":"65800435@N06","authorname":"Luca Lag\u005cu00f2","raw":"human","_content":"human","machine_tag":0},{"id":"65755113-30718647745-3484","author":"65800435@N06","authorname":"Luca Lag\u005cu00f2","raw":"tramonto","_content":"tramonto","machine_tag":0},{"id":"65755113-30718647745-297","author":"65800435@N06","authorname":"Luca Lag\u005cu00f2","raw":"italy","_content":"italy","machine_tag":0},{"id":"65755113-30718647745-120490832","author":"65800435@N06","authorname":"Luca Lag\u005cu00f2","raw":"lucadumbell","_content":"lucadumbell","machine_tag":0},{"id":"65755113-30718647745-223","author":"65800435@N06","authorname":"Luca Lag\u005cu00f2","raw":"sunset","_content":"sunset","machine_tag":0},{"id":"65755113-30718647745-176591","author":"65800435@N06","authorname":"Luca Lag\u005cu00f2","raw":"iphone","_content":"iphone","machine_tag":0},{"id":"65755113-30718647745-60504812","author":"65800435@N06","authorname":"Luca Lag\u005cu00f2","raw":"instagram app","_content":"instagramapp","machine_tag":0},{"id":"65755113-30718647745-1628","author":"65800435@N06","authorname":"Luca Lag\u005cu00f2","raw":"square","_content":"square","machine_tag":0},{"id":"65755113-30718647745-14976","author":"65800435@N06","authorname":"Luca Lag\u005cu00f2","raw":"square format","_content":"squareformat","machine_tag":0},{"id":"65755113-30718647745-34115330","author":"65800435@N06","authorname":"Luca Lag\u005cu00f2","raw":"iphoneography","_content":"iphoneography","machine_tag":0}]},"location":{"latitude":"43.896723","longitude":"12.345922","accuracy":"16","context":"0","locality":{"_content":"San Leo","place_id":"QsuUmxBWULjJ67c","woeid":"722712"},"county":{"_content":"Rimini","place_id":"5MTHIt9QV7ppzZ3rhA","woeid":"15022641"},"region":{"_content":"Emilia Romagna","place_id":"xd.5Qv9WU7.oEka2","woeid":"7153334"},"country":{"_content":"Italy","place_id":"5QqgvRVTUb7tSzaDpQ","woeid":"23424853"},"place_id":"QsuUmxBWULjJ67c","woeid":"722712"},"geoperms":{"ispublic":1,"iscontact":0,"isfriend":0,"isfamily":0},"urls":{"url":[{"type":"photopage","_content":"https:\u005c/\u005c/www.flickr.com\u005c/photos\u005c/lucapictures\u005c/30718647745\u005c/"}]},"media":"photo"},"stat":"ok"})
p22
sS'https://api.flickr.com/services/rest/?format=json&method=flickr.photos.getInfo&per_page=50&photo_id=30601857312&tag_mode=all&tags=sunset'
p23
VjsonFlickrApi({"photo":{"id":"30601857312","secret":"6e4362b416","server":"5515","farm":6,"dateuploaded":"1478032134","isfavorite":0,"license":"0","safety_level":"0","rotation":0,"owner":{"nsid":"30366721@N07","username":"BCalico","realname":"","location":"","iconserver":"8592","iconfarm":9,"path_alias":"bcalico"},"title":{"_content":""},"description":{"_content":""},"visibility":{"ispublic":1,"isfriend":0,"isfamily":0},"dates":{"posted":"1478032134","taken":"2016-10-25 12:04:37","takengranularity":0,"takenunknown":"1","lastupdate":"1483957791"},"views":"973","editability":{"cancomment":0,"canaddmeta":0},"publiceditability":{"cancomment":1,"canaddmeta":1},"usage":{"candownload":0,"canblog":0,"canprint":0,"canshare":0},"comments":{"_content":"0"},"notes":{"note":[]},"people":{"haspeople":0},"tags":{"tag":[{"id":"30345391-30601857312-3130","author":"30366721@N07","authorname":"BCalico","raw":"san","_content":"san","machine_tag":0},{"id":"30345391-30601857312-8385","author":"30366721@N07","authorname":"BCalico","raw":"diego","_content":"diego","machine_tag":0},{"id":"30345391-30601857312-4378","author":"30366721@N07","authorname":"BCalico","raw":"san diego","_content":"sandiego","machine_tag":0},{"id":"30345391-30601857312-83","author":"30366721@N07","authorname":"BCalico","raw":"ca","_content":"ca","machine_tag":0},{"id":"30345391-30601857312-1007","author":"30366721@N07","authorname":"BCalico","raw":"cali","_content":"cali","machine_tag":0},{"id":"30345391-30601857312-50","author":"30366721@N07","authorname":"BCalico","raw":"california","_content":"california","machine_tag":0},{"id":"30345391-30601857312-704","author":"30366721@N07","authorname":"BCalico","raw":"beach","_content":"beach","machine_tag":0},{"id":"30345391-30601857312-19","author":"30366721@N07","authorname":"BCalico","raw":"ocean","_content":"ocean","machine_tag":0},{"id":"30345391-30601857312-800","author":"30366721@N07","authorname":"BCalico","raw":"water","_content":"water","machine_tag":0},{"id":"30345391-30601857312-3534","author":"30366721@N07","authorname":"BCalico","raw":"waves","_content":"waves","machine_tag":0},{"id":"30345391-30601857312-4315","author":"30366721@N07","authorname":"BCalico","raw":"pacific","_content":"pacific","machine_tag":0},{"id":"30345391-30601857312-141","author":"30366721@N07","authorname":"BCalico","raw":"blue","_content":"blue","machine_tag":0},{"id":"30345391-30601857312-12251","author":"30366721@N07","authorname":"BCalico","raw":"dirt","_content":"dirt","machine_tag":0},{"id":"30345391-30601857312-5480","author":"30366721@N07","authorname":"BCalico","raw":"ripple","_content":"ripple","machine_tag":0},{"id":"30345391-30601857312-22971","author":"30366721@N07","authorname":"BCalico","raw":"ripples","_content":"ripples","machine_tag":0},{"id":"30345391-30601857312-223","author":"30366721@N07","authorname":"BCalico","raw":"sunset","_content":"sunset","machine_tag":0},{"id":"30345391-30601857312-10149","author":"30366721@N07","authorname":"BCalico","raw":"fresh","_content":"fresh","machine_tag":0}]},"urls":{"url":[{"type":"photopage","_content":"https:\u005c/\u005c/www.flickr.com\u005c/photos\u005c/bcalico\u005c/30601857312\u005c/"}]},"media":"photo"},"stat":"ok"})
p24
sS'https://api.flickr.com/services/rest/?format=json&method=flickr.photos.getInfo&per_page=50&photo_id=30630444391&tag_mode=all&tags=sunset'
p25
VjsonFlickrApi({"photo":{"id":"30630444391","secret":"65305d8eaf","server":"5804","farm":6,"dateuploaded":"1478032160","isfavorite":0,"license":"0","safety_level":"0","rotation":0,"owner":{"nsid":"51935476@N07","username":"photofokus.de","realname":"Andreas Neumann","location":"","iconserver":"5022","iconfarm":6,"path_alias":"photofokus_de"},"title":{"_content":"Rhine Evening"},"description":{"_content":""},"visibility":{"ispublic":1,"isfriend":0,"isfamily":0},"dates":{"posted":"1478032160","taken":"2016-10-31 17:33:53","takengranularity":"0","takenunknown":"0","lastupdate":"1481585016"},"views":"118","editability":{"cancomment":0,"canaddmeta":0},"publiceditability":{"cancomment":1,"canaddmeta":0},"usage":{"candownload":0,"canblog":0,"canprint":0,"canshare":1},"comments":{"_content":"0"},"notes":{"note":[]},"people":{"haspeople":0},"tags":{"tag":[{"id":"51914146-30630444391-167","author":"51935476@N07","authorname":"photofokus.de","raw":"Autumn","_content":"autumn","machine_tag":0},{"id":"51914146-30630444391-37294","author":"51935476@N07","authorname":"photofokus.de","raw":"Fluss","_content":"fluss","machine_tag":0},{"id":"51914146-30630444391-6632","author":"51935476@N07","authorname":"photofokus.de","raw":"Herbst","_content":"herbst","machine_tag":0},{"id":"51914146-30630444391-3806","author":"51935476@N07","authorname":"photofokus.de","raw":"Sonnenuntergang","_content":"sonnenuntergang","machine_tag":0},{"id":"51914146-30630444391-6672","author":"51935476@N07","authorname":"photofokus.de","raw":"Jahreszeit","_content":"jahreszeit","machine_tag":0},{"id":"51914146-30630444391-223","author":"51935476@N07","authorname":"photofokus.de","raw":"Sunset","_content":"sunset","machine_tag":0},{"id":"51914146-30630444391-300803","author":"51935476@N07","authorname":"photofokus.de","raw":"Angler","_content":"angler","machine_tag":0},{"id":"51914146-30630444391-38993","author":"51935476@N07","authorname":"photofokus.de","raw":"Rhine","_content":"rhine","machine_tag":0},{"id":"51914146-30630444391-613","author":"51935476@N07","authorname":"photofokus.de","raw":"Fall","_content":"fall","machine_tag":0},{"id":"51914146-30630444391-42067","author":"51935476@N07","authorname":"photofokus.de","raw":"Rhein","_content":"rhein","machine_tag":0},{"id":"51914146-30630444391-2117","author":"51935476@N07","authorname":"photofokus.de","raw":"Evening","_content":"evening","machine_tag":0}]},"urls":{"url":[{"type":"photopage","_content":"https:\u005c/\u005c/www.flickr.com\u005c/photos\u005c/photofokus_de\u005c/30630444391\u005c/"}]},"media":"photo"},"stat":"ok"})
p26
sS'https://api.flickr.com/services/rest/?format=json&method=flickr.photos.getInfo&per_page=50&photo_id=30418152600&tag_mode=all&tags=sunset'
p27
VjsonFlickrApi({"photo":{"id":"30418152600","secret":"4e3b2efc33","server":"5595","farm":6,"dateuploaded":"1478031591","isfavorite":0,"license":"0","safety_level":"0","rotation":0,"originalsecret":"4046c5dfcf","originalformat":"jpg","owner":{"nsid":"104902738@N08","username":"gerardo.rizzonosk","realname":"Gerardo Rizzo","location":"","iconserver":"8633","iconfarm":9,"path_alias":null},"title":{"_content":"Tramonto in Costiera Amalfitana 01\u005c/11\u005c/2016"},"description":{"_content":""},"visibility":{"ispublic":1,"isfriend":0,"isfamily":0},"dates":{"posted":"1478031591","taken":"2016-11-01 17:26:24","takengranularity":"0","takenunknown":"0","lastupdate":"1509480061"},"views":"34","editability":{"cancomment":0,"canaddmeta":0},"publiceditability":{"cancomment":1,"canaddmeta":0},"usage":{"candownload":1,"canblog":0,"canprint":0,"canshare":1},"comments":{"_content":"0"},"notes":{"note":[]},"people":{"haspeople":0},"tags":{"tag":[{"id":"104809925-30418152600-649286","author":"104902738@N08","authorname":"gerardo.rizzonosk","raw":"Maiori","_content":"maiori","machine_tag":0},{"id":"104809925-30418152600-61106","author":"104902738@N08","authorname":"gerardo.rizzonosk","raw":"Salerno","_content":"salerno","machine_tag":0},{"id":"104809925-30418152600-530973","author":"104902738@N08","authorname":"gerardo.rizzonosk","raw":"costieraamalfitana","_content":"costieraamalfitana","machine_tag":0},{"id":"104809925-30418152600-223","author":"104902738@N08","authorname":"gerardo.rizzonosk","raw":"sunset","_content":"sunset","machine_tag":0},{"id":"104809925-30418152600-282","author":"104902738@N08","authorname":"gerardo.rizzonosk","raw":"sky","_content":"sky","machine_tag":0},{"id":"104809925-30418152600-228","author":"104902738@N08","authorname":"gerardo.rizzonosk","raw":"sea","_content":"sea","machine_tag":0},{"id":"104809925-30418152600-704","author":"104902738@N08","authorname":"gerardo.rizzonosk","raw":"beach","_content":"beach","machine_tag":0},{"id":"104809925-30418152600-56210","author":"104902738@N08","authorname":"gerardo.rizzonosk","raw":"hdr","_content":"hdr","machine_tag":0},{"id":"104809925-30418152600-133073206","author":"104902738@N08","authorname":"gerardo.rizzonosk","raw":"NokiaLumia1520","_content":"nokialumia1520","machine_tag":0}]},"urls":{"url":[{"type":"photopage","_content":"https:\u005c/\u005c/www.flickr.com\u005c/photos\u005c/104902738@N08\u005c/30418152600\u005c/"}]},"media":"photo"},"stat":"ok"})
p28
sS'https://api.flickr.com/services/rest/?format=json&method=flickr.photos.getInfo&per_page=50&photo_id=30630305001&tag_mode=all&tags=sunset'
p29
VjsonFlickrApi({"photo":{"id":"30630305001","secret":"c702dfdae4","server":"5450","farm":6,"dateuploaded":"1478031726","isfavorite":0,"license":"0","safety_level":"0","rotation":0,"originalsecret":"b5471a5593","originalformat":"jpg","owner":{"nsid":"57790460@N04","username":"magicsylv1","realname":"sylvain delage","location":"","iconserver":"5089","iconfarm":6,"path_alias":"unjourunephoto2011"},"title":{"_content":"Bord de Loire dans la Ni\u005cu00e8vre"},"description":{"_content":""},"visibility":{"ispublic":1,"isfriend":0,"isfamily":0},"dates":{"posted":"1478031726","taken":"2016-10-22 18:34:57","takengranularity":"0","takenunknown":"0","lastupdate":"1503266040"},"views":"38","editability":{"cancomment":0,"canaddmeta":0},"publiceditability":{"cancomment":1,"canaddmeta":0},"usage":{"candownload":1,"canblog":0,"canprint":0,"canshare":0},"comments":{"_content":"0"},"notes":{"note":[]},"people":{"haspeople":0},"tags":{"tag":[{"id":"57758321-30630305001-223","author":"57790460@N04","authorname":"magicsylv1","raw":"sunset","_content":"sunset","machine_tag":0},{"id":"57758321-30630305001-1709598","author":"57790460@N04","authorname":"magicsylv1","raw":"Ni\u005cu00e8vre","_content":"ni\u005cu00e8vre","machine_tag":0},{"id":"57758321-30630305001-42807","author":"57790460@N04","authorname":"magicsylv1","raw":"Loire","_content":"loire","machine_tag":0}]},"urls":{"url":[{"type":"photopage","_content":"https:\u005c/\u005c/www.flickr.com\u005c/photos\u005c/unjourunephoto2011\u005c/30630305001\u005c/"}]},"media":"photo"},"stat":"ok"})
p30
sS'https://api.flickr.com/services/rest/?format=json&method=flickr.photos.getInfo&per_page=50&photo_id=30718613765&tag_mode=all&tags=sunset'
p31
VjsonFlickrApi({"photo":{"id":"30718613765","secret":"7b8cffa6d3","server":"5584","farm":6,"dateuploaded":"1478031138","isfavorite":0,"license":"0","safety_level":"0","rotation":0,"originalsecret":"80949cdc5d","originalformat":"jpg","owner":{"nsid":"142594009@N04","username":"TheAnthonyBrooks","realname":"Anthony Brooks","location":"","iconserver":"7427","iconfarm":8,"path_alias":"theanthonybrooks"},"title":{"_content":"Lazise - 10\u005c/22"},"description":{"_content":""},"visibility":{"ispublic":1,"isfriend":0,"isfamily":0},"dates":{"posted":"1478031138","taken":"2016-10-22 09:33:45","takengranularity":"0","takenunknown":"0","lastupdate":"1478031147"},"views":"13","editability":{"cancomment":0,"canaddmeta":0},"publiceditability":{"cancomment":1,"canaddmeta":0},"usage":{"candownload":1,"canblog":0,"canprint":0,"canshare":1},"comments":{"_content":"0"},"notes":{"note":[]},"people":{"haspeople":0},"tags":{"tag":[{"id":"142561870-30718613765-288814","author":"142594009@N04","authorname":"TheAnthonyBrooks","raw":"Lazise","_content":"lazise","machine_tag":0},{"id":"142561870-30718613765-297","author":"142594009@N04","authorname":"TheAnthonyBrooks","raw":"Italy","_content":"italy","machine_tag":0},{"id":"142561870-30718613765-3272","author":"142594009@N04","authorname":"TheAnthonyBrooks","raw":"Europe","_content":"europe","machine_tag":0},{"id":"142561870-30718613765-400","author":"142594009@N04","authorname":"TheAnthonyBrooks","raw":"Lake","_content":"lake","machine_tag":0},{"id":"142561870-30718613765-3140","author":"142594009@N04","authorname":"TheAnthonyBrooks","raw":"Garda","_content":"garda","machine_tag":0},{"id":"142561870-30718613765-223","author":"142594009@N04","authorname":"TheAnthonyBrooks","raw":"Sunset","_content":"sunset","machine_tag":0},{"id":"142561870-30718613765-1783","author":"142594009@N04","authorname":"TheAnthonyBrooks","raw":"Boats","_content":"boats","machine_tag":0},{"id":"142561870-30718613765-791","author":"142594009@N04","authorname":"TheAnthonyBrooks","raw":"Nature","_content":"nature","machine_tag":0},{"id":"142561870-30718613765-1174","author":"142594009@N04","authorname":"TheAnthonyBrooks","raw":"Architecture","_content":"architecture","machine_tag":0},{"id":"142561870-30718613765-1312","author":"142594009@N04","authorname":"TheAnthonyBrooks","raw":"Port","_content":"port","machine_tag":0},{"id":"142561870-30718613765-298853180","author":"142594009@N04","authorname":"TheAnthonyBrooks","raw":"SketchyTravels","_content":"sketchytravels","machine_tag":0},{"id":"142561870-30718613765-121","author":"142594009@N04","authorname":"TheAnthonyBrooks","raw":"Travel","_content":"travel","machine_tag":0}]},"urls":{"url":[{"type":"photopage","_content":"https:\u005c/\u005c/www.flickr.com\u005c/photos\u005c/theanthonybrooks\u005c/30718613765\u005c/"}]},"media":"photo"},"stat":"ok"})
p32
sS'https://api.flickr.com/services/rest/?format=json&method=flickr.photos.getInfo&per_page=50&photo_id=30418235690&tag_mode=all&tags=sunset'
p33
VjsonFlickrApi({"photo":{"id":"30418235690","secret":"6aa4c5444a","server":"5669","farm":6,"dateuploaded":"1478031876","isfavorite":0,"license":"0","safety_level":"0","rotation":0,"originalsecret":"e0bb4d0079","originalformat":"jpg","owner":{"nsid":"144579656@N06","username":"raquelbalbino1","realname":"Raquel Balbino","location":"","iconserver":"4249","iconfarm":5,"path_alias":null},"title":{"_content":""},"description":{"_content":""},"visibility":{"ispublic":1,"isfriend":0,"isfamily":0},"dates":{"posted":"1478031876","taken":"2016-10-02 20:49:22","takengranularity":"0","takenunknown":"0","lastupdate":"1478031951"},"views":"12","editability":{"cancomment":0,"canaddmeta":0},"publiceditability":{"cancomment":1,"canaddmeta":0},"usage":{"candownload":1,"canblog":0,"canprint":0,"canshare":1},"comments":{"_content":"0"},"notes":{"note":[]},"people":{"haspeople":0},"tags":{"tag":[{"id":"144534334-30418235690-282","author":"144579656@N06","authorname":"raquelbalbino1","raw":"sky","_content":"sky","machine_tag":0},{"id":"144534334-30418235690-223","author":"144579656@N06","authorname":"raquelbalbino1","raw":"sunset","_content":"sunset","machine_tag":0},{"id":"144534334-30418235690-791","author":"144579656@N06","authorname":"raquelbalbino1","raw":"nature","_content":"nature","machine_tag":0}]},"urls":{"url":[{"type":"photopage","_content":"https:\u005c/\u005c/www.flickr.com\u005c/photos\u005c/144579656@N06\u005c/30418235690\u005c/"}]},"media":"photo"},"stat":"ok"})
p34
sS'https://api.flickr.com/services/rest/?format=json&method=flickr.photos.getInfo&per_page=50&photo_id=30086531374&tag_mode=all&tags=sunset'
p35
VjsonFlickrApi({"photo":{"id":"30086531374","secret":"61b00ff1a7","server":"5497","farm":6,"dateuploaded":"1478032388","isfavorite":0,"license":"0","safety_level":"0","rotation":0,"originalsecret":"06a77ac38e","originalformat":"jpg","owner":{"nsid":"64776741@N04","username":"ETMN-PICTURES","realname":"Eike Henning","location":"Nordholz, Germany","iconserver":"8719","iconfarm":9,"path_alias":"spotterblog"},"title":{"_content":"Sonnenuntergangsstimmung"},"description":{"_content":"Sonnenuntergang in Spieka-Neufeld"},"visibility":{"ispublic":1,"isfriend":0,"isfamily":0},"dates":{"posted":"1478032388","taken":"2016-10-29 17:28:48","takengranularity":"0","takenunknown":"0","lastupdate":"1493939755"},"views":"1243","editability":{"cancomment":0,"canaddmeta":0},"publiceditability":{"cancomment":1,"canaddmeta":0},"usage":{"candownload":1,"canblog":0,"canprint":0,"canshare":0},"comments":{"_content":"4"},"notes":{"note":[]},"people":{"haspeople":0},"tags":{"tag":[{"id":"64744602-30086531374-1762493","author":"64776741@N04","authorname":"ETMN-PICTURES","raw":"70D","_content":"70d","machine_tag":0},{"id":"64744602-30086531374-1382","author":"64776741@N04","authorname":"ETMN-PICTURES","raw":"Canon","_content":"canon","machine_tag":0},{"id":"64744602-30086531374-1966","author":"64776741@N04","authorname":"ETMN-PICTURES","raw":"EOS","_content":"eos","machine_tag":0},{"id":"64744602-30086531374-6690","author":"64776741@N04","authorname":"ETMN-PICTURES","raw":"Natur","_content":"natur","machine_tag":0},{"id":"64744602-30086531374-42871","author":"64776741@N04","authorname":"ETMN-PICTURES","raw":"Nordsee","_content":"nordsee","machine_tag":0},{"id":"64744602-30086531374-27570630","author":"64776741@N04","authorname":"ETMN-PICTURES","raw":"Spieka-Neufeld","_content":"spiekaneufeld","machine_tag":0},{"id":"64744602-30086531374-59040","author":"64776741@N04","authorname":"ETMN-PICTURES","raw":"Watt","_content":"watt","machine_tag":0},{"id":"64744602-30086531374-2502","author":"64776741@N04","authorname":"ETMN-PICTURES","raw":"nationalpark","_content":"nationalpark","machine_tag":0},{"id":"64744602-30086531374-6550","author":"64776741@N04","authorname":"ETMN-PICTURES","raw":"ngc","_content":"ngc","machine_tag":0},{"id":"64744602-30086531374-228228635","author":"64776741@N04","authorname":"ETMN-PICTURES","raw":"TAMRON SP 150-600mm F\u005c/5-6.3 Di","_content":"tamronsp150600mmf563di","machine_tag":0},{"id":"64744602-30086531374-223","author":"64776741@N04","authorname":"ETMN-PICTURES","raw":"sunset","_content":"sunset","machine_tag":0},{"id":"64744602-30086531374-791","author":"64776741@N04","authorname":"ETMN-PICTURES","raw":"nature","_content":"nature","machine_tag":0},{"id":"64744602-30086531374-1695","author":"64776741@N04","authorname":"ETMN-PICTURES","raw":"landscape","_content":"landscape","machine_tag":0},{"id":"64744602-30086531374-228","author":"64776741@N04","authorname":"ETMN-PICTURES","raw":"sea","_content":"sea","machine_tag":0},{"id":"64744602-30086531374-2105","author":"64776741@N04","authorname":"ETMN-PICTURES","raw":"golden","_content":"golden","machine_tag":0},{"id":"64744602-30086531374-8661720","author":"64776741@N04","authorname":"ETMN-PICTURES","raw":"Goldene Stunde","_content":"goldenestunde","machine_tag":0}]},"location":{"latitude":"53.790044","longitude":"8.545547","accuracy":"16","context":"0","locality":{"_content":"Spieka-Neufeld","place_id":"72S4B11TUruufhqjTQ","woeid":"20167364"},"county":{"_content":"Landkreis Cuxhaven","place_id":"SU8I3XlQUL9nCb0rQw","woeid":"12596716"},"region":{"_content":"Lower Saxony","place_id":"ul2d17NTUb4lkTA_","woeid":"2345486"},"country":{"_content":"Germany","place_id":"h7eZVDlTUb50Btij9Q","woeid":"23424829"},"place_id":"72S4B11TUruufhqjTQ","woeid":"20167364"},"geoperms":{"ispublic":1,"iscontact":0,"isfriend":0,"isfamily":0},"urls":{"url":[{"type":"photopage","_content":"https:\u005c/\u005c/www.flickr.com\u005c/photos\u005c/spotterblog\u005c/30086531374\u005c/"}]},"media":"photo"},"stat":"ok"})
p36
sS'https://api.flickr.com/services/rest/?format=json&method=flickr.photos.search&per_page=50&tag_mode=all&tags=sunset'
p37
VjsonFlickrApi({"photos":{"page":1,"pages":9220,"perpage":50,"total":"460997","photo":[{"id":"30602056932","owner":"94946017@N00","secret":"70969764c7","server":"5720","farm":6,"title":"Brook Bay at Sunset","ispublic":1,"isfriend":0,"isfamily":0},{"id":"30718936245","owner":"25834184@N04","secret":"54e0d96ddd","server":"5652","farm":6,"title":"Eftermiddag ved Ferring Strand 02 BW","ispublic":1,"isfriend":0,"isfamily":0},{"id":"30682032796","owner":"25834184@N04","secret":"6812f844a1","server":"5448","farm":6,"title":"Eftermiddag ved Ferring Strand 02","ispublic":1,"isfriend":0,"isfamily":0},{"id":"30086531374","owner":"64776741@N04","secret":"61b00ff1a7","server":"5497","farm":6,"title":"Sonnenuntergangsstimmung","ispublic":1,"isfriend":0,"isfamily":0},{"id":"30084237603","owner":"25834184@N04","secret":"9be255dfa7","server":"5454","farm":6,"title":"Eftermiddag ved Ferring Strand","ispublic":1,"isfriend":0,"isfamily":0},{"id":"30416394900","owner":"85477486@N07","secret":"de36492dac","server":"5714","farm":6,"title":"Tihany","ispublic":1,"isfriend":0,"isfamily":0},{"id":"30084573614","owner":"85477486@N07","secret":"36109dcfd5","server":"5755","farm":6,"title":"Tihany","ispublic":1,"isfriend":0,"isfamily":0},{"id":"30630444391","owner":"51935476@N07","secret":"65305d8eaf","server":"5804","farm":6,"title":"Rhine Evening","ispublic":1,"isfriend":0,"isfamily":0},{"id":"30418235690","owner":"144579656@N06","secret":"6aa4c5444a","server":"5669","farm":6,"title":"","ispublic":1,"isfriend":0,"isfamily":0},{"id":"30681951376","owner":"146282755@N04","secret":"e8882109fa","server":"5780","farm":6,"title":"Bateau","ispublic":1,"isfriend":0,"isfamily":0},{"id":"30681936136","owner":"136138189@N08","secret":"14d0260457","server":"5491","farm":6,"title":"Tramonto dal sentiero 1 - Alta Via delle Cinque Terre","ispublic":1,"isfriend":0,"isfamily":0},{"id":"30601857312","owner":"30366721@N07","secret":"6e4362b416","server":"5515","farm":6,"title":"","ispublic":1,"isfriend":0,"isfamily":0},{"id":"30681904126","owner":"57790460@N04","secret":"6560a4b1d1","server":"5339","farm":6,"title":"Bord de Loire dans la Ni\u005cu00e8vre","ispublic":1,"isfriend":0,"isfamily":0},{"id":"30630305001","owner":"57790460@N04","secret":"c702dfdae4","server":"5450","farm":6,"title":"Bord de Loire dans la Ni\u005cu00e8vre","ispublic":1,"isfriend":0,"isfamily":0},{"id":"30086360994","owner":"23647600@N06","secret":"13da2e8a22","server":"5824","farm":6,"title":"Tanna, Vanuatu","ispublic":1,"isfriend":0,"isfamily":0},{"id":"30630258871","owner":"23647600@N06","secret":"63e8fd4d61","server":"5549","farm":6,"title":"Tanna, Vanuatu","ispublic":1,"isfriend":0,"isfamily":0},{"id":"30084081303","owner":"61543242@N05","secret":"6e900d0558","server":"5349","farm":6,"title":"sunset","ispublic":1,"isfriend":0,"isfamily":0},{"id":"30630178101","owner":"126050329@N06","secret":"19cc849576","server":"5742","farm":6,"title":"2","ispublic":1,"isfriend":0,"isfamily":0},{"id":"30630177031","owner":"126050329@N06","secret":"dcd298d1a5","server":"5813","farm":6,"title":"3","ispublic":1,"isfriend":0,"isfamily":0},{"id":"30470262012","owner":"7156765@N05","secret":"9dbf11ef35","server":"8681","farm":9,"title":"Ottawa Ontario Canada ~ Parliament Hill and  Library ~ Historical Site","ispublic":1,"isfriend":0,"isfamily":0},{"id":"30601789922","owner":"104902738@N08","secret":"9ef5c5b9f0","server":"5541","farm":6,"title":"Tramonto in Costiera Amalfitana 01\u005c/11\u005c/2016","ispublic":1,"isfriend":0,"isfamily":0},{"id":"30418154660","owner":"144579656@N06","secret":"89c2aeff5e","server":"5567","farm":6,"title":"","ispublic":1,"isfriend":0,"isfamily":0},{"id":"30418152600","owner":"104902738@N08","secret":"4e3b2efc33","server":"5595","farm":6,"title":"Tramonto in Costiera Amalfitana 01\u005c/11\u005c/2016","ispublic":1,"isfriend":0,"isfamily":0},{"id":"30681876086","owner":"13361224@N03","secret":"c481c3d452","server":"5500","farm":6,"title":"Stranded on the beach","ispublic":1,"isfriend":0,"isfamily":0},{"id":"30630205731","owner":"144579656@N06","secret":"afb62138e5","server":"5783","farm":6,"title":"","ispublic":1,"isfriend":0,"isfamily":0},{"id":"30630190451","owner":"75201823@N05","secret":"56677c8e58","server":"5325","farm":6,"title":"end of the day","ispublic":1,"isfriend":0,"isfamily":0},{"id":"30418075560","owner":"144579656@N06","secret":"b2d7fd22aa","server":"5794","farm":6,"title":"","ispublic":1,"isfriend":0,"isfamily":0},{"id":"30086267414","owner":"48468275@N06","secret":"eaf0656147","server":"5470","farm":6,"title":"DSC04512","ispublic":1,"isfriend":0,"isfamily":0},{"id":"30718647745","owner":"65800435@N06","secret":"89e5225fe7","server":"5724","farm":6,"title":"Fortezza di San Leo.","ispublic":1,"isfriend":0,"isfamily":0},{"id":"30418046450","owner":"127742200@N05","secret":"d004cbc76f","server":"5462","farm":6,"title":"","ispublic":1,"isfriend":0,"isfamily":0},{"id":"30418044560","owner":"145180945@N07","secret":"1117e7b0c7","server":"5515","farm":6,"title":"Difficult roads often lead to beautiful places","ispublic":1,"isfriend":0,"isfamily":0},{"id":"30630094701","owner":"142594009@N04","secret":"4607ef3df8","server":"5452","farm":6,"title":"Lazise - 10\u005c/22","ispublic":1,"isfriend":0,"isfamily":0},{"id":"30681765456","owner":"136249946@N08","secret":"fdf5c0d12f","server":"5590","farm":6,"title":"Autumn forest","ispublic":1,"isfriend":0,"isfamily":0},{"id":"30630093291","owner":"142594009@N04","secret":"8647c27dc4","server":"5802","farm":6,"title":"Lazise - 10\u005c/22","ispublic":1,"isfriend":0,"isfamily":0},{"id":"30418032740","owner":"142594009@N04","secret":"2d486ba7f0","server":"5765","farm":6,"title":"Lazise - 10\u005c/22","ispublic":1,"isfriend":0,"isfamily":0},{"id":"30630090441","owner":"142594009@N04","secret":"5b4c0f65aa","server":"5544","farm":6,"title":"Lazise - 10\u005c/22","ispublic":1,"isfriend":0,"isfamily":0},{"id":"30418030390","owner":"142594009@N04","secret":"2d21d13b54","server":"5704","farm":6,"title":"Lazise - 10\u005c/22","ispublic":1,"isfriend":0,"isfamily":0},{"id":"30083985503","owner":"144579656@N06","secret":"34d24c633a","server":"5701","farm":6,"title":"","ispublic":1,"isfriend":0,"isfamily":0},{"id":"30630087561","owner":"142594009@N04","secret":"e49bd7f32a","server":"5524","farm":6,"title":"Lazise - 10\u005c/22","ispublic":1,"isfriend":0,"isfamily":0},{"id":"30418025180","owner":"142594009@N04","secret":"81b2f7b3e0","server":"5537","farm":6,"title":"Lazise - 10\u005c/22","ispublic":1,"isfriend":0,"isfamily":0},{"id":"30418023920","owner":"142594009@N04","secret":"b25c9a4a45","server":"5655","farm":6,"title":"Lazise - 10\u005c/22","ispublic":1,"isfriend":0,"isfamily":0},{"id":"30718613765","owner":"142594009@N04","secret":"7b8cffa6d3","server":"5584","farm":6,"title":"Lazise - 10\u005c/22","ispublic":1,"isfriend":0,"isfamily":0},{"id":"30718612745","owner":"142594009@N04","secret":"8f95365123","server":"5836","farm":6,"title":"Lazise - 10\u005c/22","ispublic":1,"isfriend":0,"isfamily":0},{"id":"30718611465","owner":"142594009@N04","secret":"8412afd958","server":"5784","farm":6,"title":"Lazise - 10\u005c/22","ispublic":1,"isfriend":0,"isfamily":0},{"id":"30718609145","owner":"142594009@N04","secret":"684b34a26f","server":"5578","farm":6,"title":"Lazise - 10\u005c/22","ispublic":1,"isfriend":0,"isfamily":0},{"id":"30086194764","owner":"142594009@N04","secret":"2ea8cab633","server":"5516","farm":6,"title":"Lazise - 10\u005c/22","ispublic":1,"isfriend":0,"isfamily":0},{"id":"30718606635","owner":"142594009@N04","secret":"eb375cd19b","server":"5532","farm":6,"title":"Lazise - 10\u005c/22","ispublic":1,"isfriend":0,"isfamily":0},{"id":"30718604335","owner":"142594009@N04","secret":"89489d57c2","server":"5524","farm":6,"title":"Lazise - 10\u005c/22","ispublic":1,"isfriend":0,"isfamily":0},{"id":"30718601155","owner":"142594009@N04","secret":"db20c6089b","server":"5626","farm":6,"title":"Lazise - 10\u005c/22","ispublic":1,"isfriend":0,"isfamily":0},{"id":"30601679892","owner":"142594009@N04","secret":"0b7a49a6f6","server":"5698","farm":6,"title":"Lazise - 10\u005c/22","ispublic":1,"isfriend":0,"isfamily":0}]},"stat":"ok"})
p38
sS'https://api.flickr.com/services/rest/?format=json&method=flickr.photos.getInfo&per_page=50&photo_id=30718606635&tag_mode=all&tags=sunset'
p39
VjsonFlickrApi({"photo":{"id":"30718606635","secret":"eb375cd19b","server":"5532","farm":6,"dateuploaded":"1478031142","isfavorite":0,"license":"0","safety_level":"0","rotation":0,"originalsecret":"c94982ff4d","originalformat":"jpg","owner":{"nsid":"142594009@N04","username":"TheAnthonyBrooks","realname":"Anthony Brooks","location":"","iconserver":"7427","iconfarm":8,"path_alias":"theanthonybrooks"},"title":{"_content":"Lazise - 10\u005c/22"},"description":{"_content":""},"visibility":{"ispublic":1,"isfriend":0,"isfamily":0},"dates":{"posted":"1478031142","taken":"2016-10-22 12:31:20","takengranularity":"0","takenunknown":"0","lastupdate":"1478031147"},"views":"13","editability":{"cancomment":0,"canaddmeta":0},"publiceditability":{"cancomment":1,"canaddmeta":0},"usage":{"candownload":1,"canblog":0,"canprint":0,"canshare":1},"comments":{"_content":"0"},"notes":{"note":[]},"people":{"haspeople":0},"tags":{"tag":[{"id":"142561870-30718606635-288814","author":"142594009@N04","authorname":"TheAnthonyBrooks","raw":"Lazise","_content":"lazise","machine_tag":0},{"id":"142561870-30718606635-297","author":"142594009@N04","authorname":"TheAnthonyBrooks","raw":"Italy","_content":"italy","machine_tag":0},{"id":"142561870-30718606635-3272","author":"142594009@N04","authorname":"TheAnthonyBrooks","raw":"Europe","_content":"europe","machine_tag":0},{"id":"142561870-30718606635-400","author":"142594009@N04","authorname":"TheAnthonyBrooks","raw":"Lake","_content":"lake","machine_tag":0},{"id":"142561870-30718606635-3140","author":"142594009@N04","authorname":"TheAnthonyBrooks","raw":"Garda","_content":"garda","machine_tag":0},{"id":"142561870-30718606635-223","author":"142594009@N04","authorname":"TheAnthonyBrooks","raw":"Sunset","_content":"sunset","machine_tag":0},{"id":"142561870-30718606635-1783","author":"142594009@N04","authorname":"TheAnthonyBrooks","raw":"Boats","_content":"boats","machine_tag":0},{"id":"142561870-30718606635-791","author":"142594009@N04","authorname":"TheAnthonyBrooks","raw":"Nature","_content":"nature","machine_tag":0},{"id":"142561870-30718606635-1174","author":"142594009@N04","authorname":"TheAnthonyBrooks","raw":"Architecture","_content":"architecture","machine_tag":0},{"id":"142561870-30718606635-1312","author":"142594009@N04","authorname":"TheAnthonyBrooks","raw":"Port","_content":"port","machine_tag":0},{"id":"142561870-30718606635-298853180","author":"142594009@N04","authorname":"TheAnthonyBrooks","raw":"SketchyTravels","_content":"sketchytravels","machine_tag":0},{"id":"142561870-30718606635-121","author":"142594009@N04","authorname":"TheAnthonyBrooks","raw":"Travel","_content":"travel","machine_tag":0}]},"urls":{"url":[{"type":"photopage","_content":"https:\u005c/\u005c/www.flickr.com\u005c/photos\u005c/theanthonybrooks\u005c/30718606635\u005c/"}]},"media":"photo"},"stat":"ok"})
p40
sS'https://api.flickr.com/services/rest/?format=json&method=flickr.photos.getInfo&per_page=50&photo_id=30681936136&tag_mode=all&tags=sunset'
p41
VjsonFlickrApi({"photo":{"id":"30681936136","secret":"14d0260457","server":"5491","farm":6,"dateuploaded":"1478031807","isfavorite":0,"license":"0","safety_level":"0","rotation":0,"originalsecret":"62cf915438","originalformat":"jpg","owner":{"nsid":"136138189@N08","username":"alkutraes","realname":"Alkutraes","location":"","iconserver":"782","iconfarm":1,"path_alias":null},"title":{"_content":"Tramonto dal sentiero 1 - Alta Via delle Cinque Terre"},"description":{"_content":""},"visibility":{"ispublic":1,"isfriend":0,"isfamily":0},"dates":{"posted":"1478031807","taken":"2016-11-01 13:23:19","takengranularity":0,"takenunknown":"1","lastupdate":"1481550810"},"views":"54","editability":{"cancomment":0,"canaddmeta":0},"publiceditability":{"cancomment":1,"canaddmeta":0},"usage":{"candownload":1,"canblog":0,"canprint":0,"canshare":1},"comments":{"_content":"5"},"notes":{"note":[]},"people":{"haspeople":0},"tags":{"tag":[{"id":"136045376-30681936136-58360","author":"136138189@N08","authorname":"alkutraes","raw":"luce","_content":"luce","machine_tag":0},{"id":"136045376-30681936136-3530","author":"136138189@N08","authorname":"alkutraes","raw":"mare","_content":"mare","machine_tag":0},{"id":"136045376-30681936136-3484","author":"136138189@N08","authorname":"alkutraes","raw":"tramonto","_content":"tramonto","machine_tag":0},{"id":"136045376-30681936136-62805","author":"136138189@N08","authorname":"alkutraes","raw":"sul","_content":"sul","machine_tag":0},{"id":"136045376-30681936136-22727","author":"136138189@N08","authorname":"alkutraes","raw":"Cinque Terre","_content":"cinqueterre","machine_tag":0},{"id":"136045376-30681936136-187411","author":"136138189@N08","authorname":"alkutraes","raw":"riflesso","_content":"riflesso","machine_tag":0},{"id":"136045376-30681936136-118701","author":"136138189@N08","authorname":"alkutraes","raw":"oro","_content":"oro","machine_tag":0},{"id":"136045376-30681936136-282890","author":"136138189@N08","authorname":"alkutraes","raw":"golden light","_content":"goldenlight","machine_tag":0},{"id":"136045376-30681936136-7088095","author":"136138189@N08","authorname":"alkutraes","raw":"luce dorata","_content":"lucedorata","machine_tag":0},{"id":"136045376-30681936136-228","author":"136138189@N08","authorname":"alkutraes","raw":"sea","_content":"sea","machine_tag":0},{"id":"136045376-30681936136-223","author":"136138189@N08","authorname":"alkutraes","raw":"sunset","_content":"sunset","machine_tag":0},{"id":"136045376-30681936136-282","author":"136138189@N08","authorname":"alkutraes","raw":"sky","_content":"sky","machine_tag":0},{"id":"136045376-30681936136-1223","author":"136138189@N08","authorname":"alkutraes","raw":"clouds","_content":"clouds","machine_tag":0},{"id":"136045376-30681936136-92331","author":"136138189@N08","authorname":"alkutraes","raw":"open air","_content":"openair","machine_tag":0},{"id":"136045376-30681936136-6090","author":"136138189@N08","authorname":"alkutraes","raw":"Liguria","_content":"liguria","machine_tag":0},{"id":"136045376-30681936136-297","author":"136138189@N08","authorname":"alkutraes","raw":"Italy","_content":"italy","machine_tag":0}]},"urls":{"url":[{"type":"photopage","_content":"https:\u005c/\u005c/www.flickr.com\u005c/photos\u005c/136138189@N08\u005c/30681936136\u005c/"}]},"media":"photo"},"stat":"ok"})
p42
sS'https://api.flickr.com/services/rest/?format=json&method=flickr.photos.getInfo&per_page=50&photo_id=30083985503&tag_mode=all&tags=sunset'
p43
VjsonFlickrApi({"stat":"fail","code":1,"message":"Photo \u005c"30083985503\u005c" not found (invalid ID)"})
p44
sS'https://api.flickr.com/services/rest/?format=json&method=flickr.photos.getInfo&per_page=50&photo_id=30718601155&tag_mode=all&tags=sunset'
p45
VjsonFlickrApi({"photo":{"id":"30718601155","secret":"db20c6089b","server":"5626","farm":6,"dateuploaded":"1478031144","isfavorite":0,"license":"0","safety_level":"0","rotation":0,"originalsecret":"8550eb78fa","originalformat":"jpg","owner":{"nsid":"142594009@N04","username":"TheAnthonyBrooks","realname":"Anthony Brooks","location":"","iconserver":"7427","iconfarm":8,"path_alias":"theanthonybrooks"},"title":{"_content":"Lazise - 10\u005c/22"},"description":{"_content":""},"visibility":{"ispublic":1,"isfriend":0,"isfamily":0},"dates":{"posted":"1478031144","taken":"2016-10-22 12:41:31","takengranularity":"0","takenunknown":"0","lastupdate":"1478031147"},"views":"14","editability":{"cancomment":0,"canaddmeta":0},"publiceditability":{"cancomment":1,"canaddmeta":0},"usage":{"candownload":1,"canblog":0,"canprint":0,"canshare":1},"comments":{"_content":"0"},"notes":{"note":[]},"people":{"haspeople":0},"tags":{"tag":[{"id":"142561870-30718601155-288814","author":"142594009@N04","authorname":"TheAnthonyBrooks","raw":"Lazise","_content":"lazise","machine_tag":0},{"id":"142561870-30718601155-297","author":"142594009@N04","authorname":"TheAnthonyBrooks","raw":"Italy","_content":"italy","machine_tag":0},{"id":"142561870-30718601155-3272","author":"142594009@N04","authorname":"TheAnthonyBrooks","raw":"Europe","_content":"europe","machine_tag":0},{"id":"142561870-30718601155-400","author":"142594009@N04","authorname":"TheAnthonyBrooks","raw":"Lake","_content":"lake","machine_tag":0},{"id":"142561870-30718601155-3140","author":"142594009@N04","authorname":"TheAnthonyBrooks","raw":"Garda","_content":"garda","machine_tag":0},{"id":"142561870-30718601155-223","author":"142594009@N04","authorname":"TheAnthonyBrooks","raw":"Sunset","_content":"sunset","machine_tag":0},{"id":"142561870-30718601155-1783","author":"142594009@N04","authorname":"TheAnthonyBrooks","raw":"Boats","_content":"boats","machine_tag":0},{"id":"142561870-30718601155-791","author":"142594009@N04","authorname":"TheAnthonyBrooks","raw":"Nature","_content":"nature","machine_tag":0},{"id":"142561870-30718601155-1174","author":"142594009@N04","authorname":"TheAnthonyBrooks","raw":"Architecture","_content":"architecture","machine_tag":0},{"id":"142561870-30718601155-1312","author":"142594009@N04","authorname":"TheAnthonyBrooks","raw":"Port","_content":"port","machine_tag":0},{"id":"142561870-30718601155-298853180","author":"142594009@N04","authorname":"TheAnthonyBrooks","raw":"SketchyTravels","_content":"sketchytravels","machine_tag":0},{"id":"142561870-30718601155-121","author":"142594009@N04","authorname":"TheAnthonyBrooks","raw":"Travel","_content":"travel","machine_tag":0}]},"urls":{"url":[{"type":"photopage","_content":"https:\u005c/\u005c/www.flickr.com\u005c/photos\u005c/theanthonybrooks\u005c/30718601155\u005c/"}]},"media":"photo"},"stat":"ok"})
p46
sS'https://api.flickr.com/services/rest/?format=json&method=flickr.photos.getInfo&per_page=50&photo_id=30630205731&tag_mode=all&tags=sunset'
p47
VjsonFlickrApi({"photo":{"id":"30630205731","secret":"afb62138e5","server":"5783","farm":6,"dateuploaded":"1478031434","isfavorite":0,"license":"0","safety_level":"0","rotation":0,"originalsecret":"9e4dd493e1","originalformat":"jpg","owner":{"nsid":"144579656@N06","username":"raquelbalbino1","realname":"Raquel Balbino","location":"","iconserver":"4249","iconfarm":5,"path_alias":null},"title":{"_content":""},"description":{"_content":""},"visibility":{"ispublic":1,"isfriend":0,"isfamily":0},"dates":{"posted":"1478031434","taken":"2016-10-02 20:48:18","takengranularity":"0","takenunknown":"0","lastupdate":"1478092335"},"views":"8","editability":{"cancomment":0,"canaddmeta":0},"publiceditability":{"cancomment":1,"canaddmeta":0},"usage":{"candownload":1,"canblog":0,"canprint":0,"canshare":1},"comments":{"_content":"0"},"notes":{"note":[]},"people":{"haspeople":0},"tags":{"tag":[{"id":"144534334-30630205731-223","author":"144579656@N06","authorname":"raquelbalbino1","raw":"sunset","_content":"sunset","machine_tag":0},{"id":"144534334-30630205731-282","author":"144579656@N06","authorname":"raquelbalbino1","raw":"sky","_content":"sky","machine_tag":0}]},"urls":{"url":[{"type":"photopage","_content":"https:\u005c/\u005c/www.flickr.com\u005c/photos\u005c/144579656@N06\u005c/30630205731\u005c/"}]},"media":"photo"},"stat":"ok"})
p48
sS'https://api.flickr.com/services/rest/?format=json&method=flickr.photos.getInfo&per_page=50&photo_id=30601679892&tag_mode=all&tags=sunset'
p49
VjsonFlickrApi({"photo":{"id":"30601679892","secret":"0b7a49a6f6","server":"5698","farm":6,"dateuploaded":"1478031145","isfavorite":0,"license":"0","safety_level":"0","rotation":0,"originalsecret":"2123cdfe98","originalformat":"jpg","owner":{"nsid":"142594009@N04","username":"TheAnthonyBrooks","realname":"Anthony Brooks","location":"","iconserver":"7427","iconfarm":8,"path_alias":"theanthonybrooks"},"title":{"_content":"Lazise - 10\u005c/22"},"description":{"_content":""},"visibility":{"ispublic":1,"isfriend":0,"isfamily":0},"dates":{"posted":"1478031145","taken":"2016-10-22 12:44:37","takengranularity":"0","takenunknown":"0","lastupdate":"1478031147"},"views":"14","editability":{"cancomment":0,"canaddmeta":0},"publiceditability":{"cancomment":1,"canaddmeta":0},"usage":{"candownload":1,"canblog":0,"canprint":0,"canshare":1},"comments":{"_content":"0"},"notes":{"note":[]},"people":{"haspeople":0},"tags":{"tag":[{"id":"142561870-30601679892-288814","author":"142594009@N04","authorname":"TheAnthonyBrooks","raw":"Lazise","_content":"lazise","machine_tag":0},{"id":"142561870-30601679892-297","author":"142594009@N04","authorname":"TheAnthonyBrooks","raw":"Italy","_content":"italy","machine_tag":0},{"id":"142561870-30601679892-3272","author":"142594009@N04","authorname":"TheAnthonyBrooks","raw":"Europe","_content":"europe","machine_tag":0},{"id":"142561870-30601679892-400","author":"142594009@N04","authorname":"TheAnthonyBrooks","raw":"Lake","_content":"lake","machine_tag":0},{"id":"142561870-30601679892-3140","author":"142594009@N04","authorname":"TheAnthonyBrooks","raw":"Garda","_content":"garda","machine_tag":0},{"id":"142561870-30601679892-223","author":"142594009@N04","authorname":"TheAnthonyBrooks","raw":"Sunset","_content":"sunset","machine_tag":0},{"id":"142561870-30601679892-1783","author":"142594009@N04","authorname":"TheAnthonyBrooks","raw":"Boats","_content":"boats","machine_tag":0},{"id":"142561870-30601679892-791","author":"142594009@N04","authorname":"TheAnthonyBrooks","raw":"Nature","_content":"nature","machine_tag":0},{"id":"142561870-30601679892-1174","author":"142594009@N04","authorname":"TheAnthonyBrooks","raw":"Architecture","_content":"architecture","machine_tag":0},{"id":"142561870-30601679892-1312","author":"142594009@N04","authorname":"TheAnthonyBrooks","raw":"Port","_content":"port","machine_tag":0},{"id":"142561870-30601679892-298853180","author":"142594009@N04","authorname":"TheAnthonyBrooks","raw":"SketchyTravels","_content":"sketchytravels","machine_tag":0},{"id":"142561870-30601679892-121","author":"142594009@N04","authorname":"TheAnthonyBrooks","raw":"Travel","_content":"travel","machine_tag":0}]},"urls":{"url":[{"type":"photopage","_content":"https:\u005c/\u005c/www.flickr.com\u005c/photos\u005c/theanthonybrooks\u005c/30601679892\u005c/"}]},"media":"photo"},"stat":"ok"})
p50
sS'https://api.flickr.com/services/rest/?format=json&method=flickr.photos.getInfo&per_page=50&photo_id=30418025180&tag_mode=all&tags=sunset'
p51
VjsonFlickrApi({"photo":{"id":"30418025180","secret":"81b2f7b3e0","server":"5537","farm":6,"dateuploaded":"1478031137","isfavorite":0,"license":"0","safety_level":"0","rotation":0,"originalsecret":"37258d5b7a","originalformat":"jpg","owner":{"nsid":"142594009@N04","username":"TheAnthonyBrooks","realname":"Anthony Brooks","location":"","iconserver":"7427","iconfarm":8,"path_alias":"theanthonybrooks"},"title":{"_content":"Lazise - 10\u005c/22"},"description":{"_content":""},"visibility":{"ispublic":1,"isfriend":0,"isfamily":0},"dates":{"posted":"1478031137","taken":"2016-10-22 08:09:38","takengranularity":"0","takenunknown":"0","lastupdate":"1478031147"},"views":"12","editability":{"cancomment":0,"canaddmeta":0},"publiceditability":{"cancomment":1,"canaddmeta":0},"usage":{"candownload":1,"canblog":0,"canprint":0,"canshare":1},"comments":{"_content":"0"},"notes":{"note":[]},"people":{"haspeople":0},"tags":{"tag":[{"id":"142561870-30418025180-288814","author":"142594009@N04","authorname":"TheAnthonyBrooks","raw":"Lazise","_content":"lazise","machine_tag":0},{"id":"142561870-30418025180-297","author":"142594009@N04","authorname":"TheAnthonyBrooks","raw":"Italy","_content":"italy","machine_tag":0},{"id":"142561870-30418025180-3272","author":"142594009@N04","authorname":"TheAnthonyBrooks","raw":"Europe","_content":"europe","machine_tag":0},{"id":"142561870-30418025180-400","author":"142594009@N04","authorname":"TheAnthonyBrooks","raw":"Lake","_content":"lake","machine_tag":0},{"id":"142561870-30418025180-3140","author":"142594009@N04","authorname":"TheAnthonyBrooks","raw":"Garda","_content":"garda","machine_tag":0},{"id":"142561870-30418025180-223","author":"142594009@N04","authorname":"TheAnthonyBrooks","raw":"Sunset","_content":"sunset","machine_tag":0},{"id":"142561870-30418025180-1783","author":"142594009@N04","authorname":"TheAnthonyBrooks","raw":"Boats","_content":"boats","machine_tag":0},{"id":"142561870-30418025180-791","author":"142594009@N04","authorname":"TheAnthonyBrooks","raw":"Nature","_content":"nature","machine_tag":0},{"id":"142561870-30418025180-1174","author":"142594009@N04","authorname":"TheAnthonyBrooks","raw":"Architecture","_content":"architecture","machine_tag":0},{"id":"142561870-30418025180-1312","author":"142594009@N04","authorname":"TheAnthonyBrooks","raw":"Port","_content":"port","machine_tag":0},{"id":"142561870-30418025180-298853180","author":"142594009@N04","authorname":"TheAnthonyBrooks","raw":"SketchyTravels","_content":"sketchytravels","machine_tag":0},{"id":"142561870-30418025180-121","author":"142594009@N04","authorname":"TheAnthonyBrooks","raw":"Travel","_content":"travel","machine_tag":0}]},"urls":{"url":[{"type":"photopage","_content":"https:\u005c/\u005c/www.flickr.com\u005c/photos\u005c/theanthonybrooks\u005c/30418025180\u005c/"}]},"media":"photo"},"stat":"ok"})
p52
sS'https://api.flickr.com/services/rest/?format=json&method=flickr.photos.getInfo&per_page=50&photo_id=30601789922&tag_mode=all&tags=sunset'
p53
VjsonFlickrApi({"photo":{"id":"30601789922","secret":"9ef5c5b9f0","server":"5541","farm":6,"dateuploaded":"1478031590","isfavorite":0,"license":"0","safety_level":"0","rotation":0,"originalsecret":"c978f7bd52","originalformat":"jpg","owner":{"nsid":"104902738@N08","username":"gerardo.rizzonosk","realname":"Gerardo Rizzo","location":"","iconserver":"8633","iconfarm":9,"path_alias":null},"title":{"_content":"Tramonto in Costiera Amalfitana 01\u005c/11\u005c/2016"},"description":{"_content":""},"visibility":{"ispublic":1,"isfriend":0,"isfamily":0},"dates":{"posted":"1478031590","taken":"2016-11-01 13:19:41","takengranularity":0,"takenunknown":"1","lastupdate":"1509482124"},"views":"25","editability":{"cancomment":0,"canaddmeta":0},"publiceditability":{"cancomment":1,"canaddmeta":0},"usage":{"candownload":1,"canblog":0,"canprint":0,"canshare":1},"comments":{"_content":"0"},"notes":{"note":[]},"people":{"haspeople":0},"tags":{"tag":[{"id":"104809925-30601789922-649286","author":"104902738@N08","authorname":"gerardo.rizzonosk","raw":"Maiori","_content":"maiori","machine_tag":0},{"id":"104809925-30601789922-61106","author":"104902738@N08","authorname":"gerardo.rizzonosk","raw":"Salerno","_content":"salerno","machine_tag":0},{"id":"104809925-30601789922-530973","author":"104902738@N08","authorname":"gerardo.rizzonosk","raw":"CostieraAmalfitana","_content":"costieraamalfitana","machine_tag":0},{"id":"104809925-30601789922-223","author":"104902738@N08","authorname":"gerardo.rizzonosk","raw":"sunset","_content":"sunset","machine_tag":0},{"id":"104809925-30601789922-282","author":"104902738@N08","authorname":"gerardo.rizzonosk","raw":"sky","_content":"sky","machine_tag":0},{"id":"104809925-30601789922-228","author":"104902738@N08","authorname":"gerardo.rizzonosk","raw":"sea","_content":"sea","machine_tag":0},{"id":"104809925-30601789922-704","author":"104902738@N08","authorname":"gerardo.rizzonosk","raw":"beach","_content":"beach","machine_tag":0},{"id":"104809925-30601789922-56210","author":"104902738@N08","authorname":"gerardo.rizzonosk","raw":"hdr","_content":"hdr","machine_tag":0},{"id":"104809925-30601789922-133073206","author":"104902738@N08","authorname":"gerardo.rizzonosk","raw":"NokiaLumia1520","_content":"nokialumia1520","machine_tag":0}]},"urls":{"url":[{"type":"photopage","_content":"https:\u005c/\u005c/www.flickr.com\u005c/photos\u005c/104902738@N08\u005c/30601789922\u005c/"}]},"media":"photo"},"stat":"ok"})
p54
sS'https://api.flickr.com/services/rest/?format=json&method=flickr.photos.getInfo&per_page=50&photo_id=30418032740&tag_mode=all&tags=sunset'
p55
VjsonFlickrApi({"photo":{"id":"30418032740","secret":"2d486ba7f0","server":"5765","farm":6,"dateuploaded":"1478031135","isfavorite":0,"license":"0","safety_level":"0","rotation":0,"originalsecret":"17cfdfc5f8","originalformat":"jpg","owner":{"nsid":"142594009@N04","username":"TheAnthonyBrooks","realname":"Anthony Brooks","location":"","iconserver":"7427","iconfarm":8,"path_alias":"theanthonybrooks"},"title":{"_content":"Lazise - 10\u005c/22"},"description":{"_content":""},"visibility":{"ispublic":1,"isfriend":0,"isfamily":0},"dates":{"posted":"1478031135","taken":"2016-10-22 07:26:14","takengranularity":"0","takenunknown":"0","lastupdate":"1478031478"},"views":"29","editability":{"cancomment":0,"canaddmeta":0},"publiceditability":{"cancomment":1,"canaddmeta":0},"usage":{"candownload":1,"canblog":0,"canprint":0,"canshare":1},"comments":{"_content":"0"},"notes":{"note":[]},"people":{"haspeople":0},"tags":{"tag":[{"id":"142561870-30418032740-288814","author":"142594009@N04","authorname":"TheAnthonyBrooks","raw":"Lazise","_content":"lazise","machine_tag":0},{"id":"142561870-30418032740-297","author":"142594009@N04","authorname":"TheAnthonyBrooks","raw":"Italy","_content":"italy","machine_tag":0},{"id":"142561870-30418032740-3272","author":"142594009@N04","authorname":"TheAnthonyBrooks","raw":"Europe","_content":"europe","machine_tag":0},{"id":"142561870-30418032740-400","author":"142594009@N04","authorname":"TheAnthonyBrooks","raw":"Lake","_content":"lake","machine_tag":0},{"id":"142561870-30418032740-3140","author":"142594009@N04","authorname":"TheAnthonyBrooks","raw":"Garda","_content":"garda","machine_tag":0},{"id":"142561870-30418032740-223","author":"142594009@N04","authorname":"TheAnthonyBrooks","raw":"Sunset","_content":"sunset","machine_tag":0},{"id":"142561870-30418032740-1783","author":"142594009@N04","authorname":"TheAnthonyBrooks","raw":"Boats","_content":"boats","machine_tag":0},{"id":"142561870-30418032740-791","author":"142594009@N04","authorname":"TheAnthonyBrooks","raw":"Nature","_content":"nature","machine_tag":0},{"id":"142561870-30418032740-1174","author":"142594009@N04","authorname":"TheAnthonyBrooks","raw":"Architecture","_content":"architecture","machine_tag":0},{"id":"142561870-30418032740-1312","author":"142594009@N04","authorname":"TheAnthonyBrooks","raw":"Port","_content":"port","machine_tag":0},{"id":"142561870-30418032740-298853180","author":"142594009@N04","authorname":"TheAnthonyBrooks","raw":"SketchyTravels","_content":"sketchytravels","machine_tag":0},{"id":"142561870-30418032740-121","author":"142594009@N04","authorname":"TheAnthonyBrooks","raw":"Travel","_content":"travel","machine_tag":0}]},"urls":{"url":[{"type":"photopage","_content":"https:\u005c/\u005c/www.flickr.com\u005c/photos\u005c/theanthonybrooks\u005c/30418032740\u005c/"}]},"media":"photo"},"stat":"ok"})
p56
sS'https://api.flickr.com/services/rest/?format=json&method=flickr.photos.getInfo&per_page=50&photo_id=30086267414&tag_mode=all&tags=sunset'
p57
VjsonFlickrApi({"photo":{"id":"30086267414","secret":"eaf0656147","server":"5470","farm":6,"dateuploaded":"1478031294","isfavorite":0,"license":"0","safety_level":"0","rotation":0,"originalsecret":"c7558f4ab8","originalformat":"jpg","owner":{"nsid":"48468275@N06","username":"De Hollena","realname":"Richard  Schmidt","location":"Heerhugowaard, Niederlande","iconserver":"3791","iconfarm":4,"path_alias":"de_hollena"},"title":{"_content":"DSC04512"},"description":{"_content":"Sunset"},"visibility":{"ispublic":1,"isfriend":0,"isfamily":0},"dates":{"posted":"1478031294","taken":"2016-10-15 17:38:57","takengranularity":"0","takenunknown":"0","lastupdate":"1509481774"},"views":"235","editability":{"cancomment":0,"canaddmeta":0},"publiceditability":{"cancomment":1,"canaddmeta":0},"usage":{"candownload":1,"canblog":0,"canprint":0,"canshare":1},"comments":{"_content":"1"},"notes":{"note":[]},"people":{"haspeople":0},"tags":{"tag":[{"id":"48422953-30086267414-704","author":"48468275@N06","authorname":"De Hollena","raw":"Beach","_content":"beach","machine_tag":0},{"id":"48422953-30086267414-91416","author":"48468275@N06","authorname":"De Hollena","raw":"Coucher de soleil","_content":"coucherdesoleil","machine_tag":0},{"id":"48422953-30086267414-9098","author":"48468275@N06","authorname":"De Hollena","raw":"Den Haag","_content":"denhaag","machine_tag":0},{"id":"48422953-30086267414-536","author":"48468275@N06","authorname":"De Hollena","raw":"Holland","_content":"holland","machine_tag":0},{"id":"48422953-30086267414-271268","author":"48468275@N06","authorname":"De Hollena","raw":"Kijkduin","_content":"kijkduin","machine_tag":0},{"id":"48422953-30086267414-931315","author":"48468275@N06","authorname":"De Hollena","raw":"La Haye","_content":"lahaye","machine_tag":0},{"id":"48422953-30086267414-840867","author":"48468275@N06","authorname":"De Hollena","raw":"Les Pays-Bas","_content":"lespaysbas","machine_tag":0},{"id":"48422953-30086267414-7568","author":"48468275@N06","authorname":"De Hollena","raw":"Nederland","_content":"nederland","machine_tag":0},{"id":"48422953-30086267414-121119","author":"48468275@N06","authorname":"De Hollena","raw":"Niederlande","_content":"niederlande","machine_tag":0},{"id":"48422953-30086267414-7830","author":"48468275@N06","authorname":"De Hollena","raw":"Noordzee","_content":"noordzee","machine_tag":0},{"id":"48422953-30086267414-42871","author":"48468275@N06","authorname":"De Hollena","raw":"Nordsee","_content":"nordsee","machine_tag":0},{"id":"48422953-30086267414-49507","author":"48468275@N06","authorname":"De Hollena","raw":"Ocaso","_content":"ocaso","machine_tag":0},{"id":"48422953-30086267414-45613","author":"48468275@N06","authorname":"De Hollena","raw":"Plage","_content":"plage","machine_tag":0},{"id":"48422953-30086267414-8886","author":"48468275@N06","authorname":"De Hollena","raw":"Playa","_content":"playa","machine_tag":0},{"id":"48422953-30086267414-2875","author":"48468275@N06","authorname":"De Hollena","raw":"Sand","_content":"sand","machine_tag":0},{"id":"48422953-30086267414-3806","author":"48468275@N06","authorname":"De Hollena","raw":"Sonnenuntergang","_content":"sonnenuntergang","machine_tag":0},{"id":"48422953-30086267414-1237","author":"48468275@N06","authorname":"De Hollena","raw":"Strand","_content":"strand","machine_tag":0},{"id":"48422953-30086267414-223","author":"48468275@N06","authorname":"De Hollena","raw":"Sunset","_content":"sunset","machine_tag":0},{"id":"48422953-30086267414-51409","author":"48468275@N06","authorname":"De Hollena","raw":"The Hague","_content":"thehague","machine_tag":0},{"id":"48422953-30086267414-7570","author":"48468275@N06","authorname":"De Hollena","raw":"The Netherlands","_content":"thenetherlands","machine_tag":0},{"id":"48422953-30086267414-127889","author":"48468275@N06","authorname":"De Hollena","raw":"Zand","_content":"zand","machine_tag":0},{"id":"48422953-30086267414-2807","author":"48468275@N06","authorname":"De Hollena","raw":"Zonsondergang","_content":"zonsondergang","machine_tag":0},{"id":"48422953-30086267414-229790","author":"48468275@N06","authorname":"De Hollena","raw":"Zuidholland","_content":"zuidholland","machine_tag":0},{"id":"48422953-30086267414-15305735","author":"48468275@N06","authorname":"De Hollena","raw":"S\u005cu00fcdholland","_content":"s\u005cu00fcdholland","machine_tag":0}]},"urls":{"url":[{"type":"photopage","_content":"https:\u005c/\u005c/www.flickr.com\u005c/photos\u005c/de_hollena\u005c/30086267414\u005c/"}]},"media":"photo"},"stat":"ok"})
p58
sS'https://api.flickr.com/services/rest/?format=json&method=flickr.photos.getInfo&per_page=50&photo_id=30682032796&tag_mode=all&tags=sunset'
p59
VjsonFlickrApi({"photo":{"id":"30682032796","secret":"6812f844a1","server":"5448","farm":6,"dateuploaded":"1478032210","isfavorite":0,"license":"0","safety_level":"0","rotation":0,"originalsecret":"d91ccae721","originalformat":"jpg","owner":{"nsid":"25834184@N04","username":"Walter Johannesen","realname":"Walter Johannesen","location":"Hobro, Denmark","iconserver":"7525","iconfarm":8,"path_alias":"walter_johannesen"},"title":{"_content":"Eftermiddag ved Ferring Strand 02"},"description":{"_content":""},"visibility":{"ispublic":1,"isfriend":0,"isfamily":0},"dates":{"posted":"1478032210","taken":"2016-11-01 17:00:33","takengranularity":"0","takenunknown":"0","lastupdate":"1478033921"},"views":"62","editability":{"cancomment":0,"canaddmeta":0},"publiceditability":{"cancomment":1,"canaddmeta":0},"usage":{"candownload":1,"canblog":0,"canprint":0,"canshare":1},"comments":{"_content":"0"},"notes":{"note":[]},"people":{"haspeople":0},"tags":{"tag":[{"id":"25802045-30682032796-2654649","author":"25834184@N04","authorname":"Walter Johannesen","raw":"Bovbjerg","_content":"bovbjerg","machine_tag":0},{"id":"25802045-30682032796-1225306","author":"25834184@N04","authorname":"Walter Johannesen","raw":"efter\u005cu00e5r","_content":"efter\u005cu00e5r","machine_tag":0},{"id":"25802045-30682032796-1260216","author":"25834184@N04","authorname":"Walter Johannesen","raw":"Ferring","_content":"ferring","machine_tag":0},{"id":"25802045-30682032796-1237","author":"25834184@N04","authorname":"Walter Johannesen","raw":"Strand","_content":"strand","machine_tag":0},{"id":"25802045-30682032796-704","author":"25834184@N04","authorname":"Walter Johannesen","raw":"Beach","_content":"beach","machine_tag":0},{"id":"25802045-30682032796-258514","author":"25834184@N04","authorname":"Walter Johannesen","raw":"kyst","_content":"kyst","machine_tag":0},{"id":"25802045-30682032796-2143","author":"25834184@N04","authorname":"Walter Johannesen","raw":"coast","_content":"coast","machine_tag":0},{"id":"25802045-30682032796-223","author":"25834184@N04","authorname":"Walter Johannesen","raw":"sunset","_content":"sunset","machine_tag":0},{"id":"25802045-30682032796-3707","author":"25834184@N04","authorname":"Walter Johannesen","raw":"afternoon","_content":"afternoon","machine_tag":0},{"id":"25802045-30682032796-3699007","author":"25834184@N04","authorname":"Walter Johannesen","raw":"eftermiddag","_content":"eftermiddag","machine_tag":0},{"id":"25802045-30682032796-122755","author":"25834184@N04","authorname":"Walter Johannesen","raw":"solnedgang","_content":"solnedgang","machine_tag":0},{"id":"25802045-30682032796-86820","author":"25834184@N04","authorname":"Walter Johannesen","raw":"skyer","_content":"skyer","machine_tag":0},{"id":"25802045-30682032796-3562","author":"25834184@N04","authorname":"Walter Johannesen","raw":"skies","_content":"skies","machine_tag":0}]},"location":{"latitude":"56.534772","longitude":"8.117673","accuracy":"15","context":"0","locality":{"_content":"Orum","place_id":"lY5JhptTW7nzk3GbjA","woeid":"29306412"},"county":{"_content":"Lemvig","place_id":"o25VybRQUL_DgkwJHQ","woeid":"12582769"},"region":{"_content":"Midtjylland","place_id":"qwVZEixTWrnxfsiP9w","woeid":"28362580"},"country":{"_content":"Denmark","place_id":"wzcKZZdTUb7wa1WOFw","woeid":"23424796"},"place_id":"lY5JhptTW7nzk3GbjA","woeid":"29306412"},"geoperms":{"ispublic":1,"iscontact":0,"isfriend":0,"isfamily":0},"urls":{"url":[{"type":"photopage","_content":"https:\u005c/\u005c/www.flickr.com\u005c/photos\u005c/walter_johannesen\u005c/30682032796\u005c/"}]},"media":"photo"},"stat":"ok"})
p60
sS'https://api.flickr.com/services/rest/?format=json&method=flickr.photos.getInfo&per_page=50&photo_id=30630177031&tag_mode=all&tags=sunset'
p61
VjsonFlickrApi({"photo":{"id":"30630177031","secret":"dcd298d1a5","server":"5813","farm":6,"dateuploaded":"1478031626","isfavorite":0,"license":"0","safety_level":"0","rotation":0,"originalsecret":"a780bfb043","originalformat":"jpg","owner":{"nsid":"126050329@N06","username":"Gustavo Ferreiraa","realname":"Luiz Gustavo Ferreira","location":"","iconserver":"3914","iconfarm":4,"path_alias":null},"title":{"_content":"End of Day"},"description":{"_content":"Sunset"},"visibility":{"ispublic":1,"isfriend":0,"isfamily":0},"dates":{"posted":"1478031626","taken":"2016-10-27 19:00:05","takengranularity":"0","takenunknown":"0","lastupdate":"1486174509"},"views":"315","editability":{"cancomment":0,"canaddmeta":0},"publiceditability":{"cancomment":1,"canaddmeta":0},"usage":{"candownload":1,"canblog":0,"canprint":0,"canshare":1},"comments":{"_content":"0"},"notes":{"note":[]},"people":{"haspeople":0},"tags":{"tag":[{"id":"126005007-30630177031-282","author":"126050329@N06","authorname":"Gustavo Ferreiraa","raw":"sky","_content":"sky","machine_tag":0},{"id":"126005007-30630177031-223","author":"126050329@N06","authorname":"Gustavo Ferreiraa","raw":"sunset","_content":"sunset","machine_tag":0},{"id":"126005007-30630177031-380","author":"126050329@N06","authorname":"Gustavo Ferreiraa","raw":"sun","_content":"sun","machine_tag":0},{"id":"126005007-30630177031-1382","author":"126050329@N06","authorname":"Gustavo Ferreiraa","raw":"canon","_content":"canon","machine_tag":0},{"id":"126005007-30630177031-342114","author":"126050329@N06","authorname":"Gustavo Ferreiraa","raw":"endofday","_content":"endofday","machine_tag":0}]},"urls":{"url":[{"type":"photopage","_content":"https:\u005c/\u005c/www.flickr.com\u005c/photos\u005c/126050329@N06\u005c/30630177031\u005c/"}]},"media":"photo"},"stat":"ok"})
p62
sS'https://api.flickr.com/services/rest/?format=json&method=flickr.photos.getInfo&per_page=50&photo_id=30718609145&tag_mode=all&tags=sunset'
p63
VjsonFlickrApi({"photo":{"id":"30718609145","secret":"684b34a26f","server":"5578","farm":6,"dateuploaded":"1478031141","isfavorite":0,"license":"0","safety_level":"0","rotation":0,"originalsecret":"80e033ebe0","originalformat":"jpg","owner":{"nsid":"142594009@N04","username":"TheAnthonyBrooks","realname":"Anthony Brooks","location":"","iconserver":"7427","iconfarm":8,"path_alias":"theanthonybrooks"},"title":{"_content":"Lazise - 10\u005c/22"},"description":{"_content":""},"visibility":{"ispublic":1,"isfriend":0,"isfamily":0},"dates":{"posted":"1478031141","taken":"2016-10-22 12:27:48","takengranularity":"0","takenunknown":"0","lastupdate":"1478031147"},"views":"17","editability":{"cancomment":0,"canaddmeta":0},"publiceditability":{"cancomment":1,"canaddmeta":0},"usage":{"candownload":1,"canblog":0,"canprint":0,"canshare":1},"comments":{"_content":"0"},"notes":{"note":[]},"people":{"haspeople":0},"tags":{"tag":[{"id":"142561870-30718609145-288814","author":"142594009@N04","authorname":"TheAnthonyBrooks","raw":"Lazise","_content":"lazise","machine_tag":0},{"id":"142561870-30718609145-297","author":"142594009@N04","authorname":"TheAnthonyBrooks","raw":"Italy","_content":"italy","machine_tag":0},{"id":"142561870-30718609145-3272","author":"142594009@N04","authorname":"TheAnthonyBrooks","raw":"Europe","_content":"europe","machine_tag":0},{"id":"142561870-30718609145-400","author":"142594009@N04","authorname":"TheAnthonyBrooks","raw":"Lake","_content":"lake","machine_tag":0},{"id":"142561870-30718609145-3140","author":"142594009@N04","authorname":"TheAnthonyBrooks","raw":"Garda","_content":"garda","machine_tag":0},{"id":"142561870-30718609145-223","author":"142594009@N04","authorname":"TheAnthonyBrooks","raw":"Sunset","_content":"sunset","machine_tag":0},{"id":"142561870-30718609145-1783","author":"142594009@N04","authorname":"TheAnthonyBrooks","raw":"Boats","_content":"boats","machine_tag":0},{"id":"142561870-30718609145-791","author":"142594009@N04","authorname":"TheAnthonyBrooks","raw":"Nature","_content":"nature","machine_tag":0},{"id":"142561870-30718609145-1174","author":"142594009@N04","authorname":"TheAnthonyBrooks","raw":"Architecture","_content":"architecture","machine_tag":0},{"id":"142561870-30718609145-1312","author":"142594009@N04","authorname":"TheAnthonyBrooks","raw":"Port","_content":"port","machine_tag":0},{"id":"142561870-30718609145-298853180","author":"142594009@N04","authorname":"TheAnthonyBrooks","raw":"SketchyTravels","_content":"sketchytravels","machine_tag":0},{"id":"142561870-30718609145-121","author":"142594009@N04","authorname":"TheAnthonyBrooks","raw":"Travel","_content":"travel","machine_tag":0}]},"urls":{"url":[{"type":"photopage","_content":"https:\u005c/\u005c/www.flickr.com\u005c/photos\u005c/theanthonybrooks\u005c/30718609145\u005c/"}]},"media":"photo"},"stat":"ok"})
p64
sS'https://api.flickr.com/services/rest/?format=json&method=flickr.photos.getInfo&per_page=50&photo_id=30418046450&tag_mode=all&tags=sunset'
p65
VjsonFlickrApi({"photo":{"id":"30418046450","secret":"d004cbc76f","server":"5462","farm":6,"dateuploaded":"1478031288","isfavorite":0,"license":"0","safety_level":"0","rotation":0,"originalsecret":"dbb9c427e1","originalformat":"jpg","owner":{"nsid":"127742200@N05","username":"Cirila \u005cu0160","realname":"","location":"","iconserver":"5787","iconfarm":6,"path_alias":null},"title":{"_content":""},"description":{"_content":""},"visibility":{"ispublic":1,"isfriend":0,"isfamily":0},"dates":{"posted":"1478031288","taken":"2016-10-28 16:27:06","takengranularity":"0","takenunknown":"0","lastupdate":"1515462627"},"views":"362","editability":{"cancomment":0,"canaddmeta":0},"publiceditability":{"cancomment":1,"canaddmeta":0},"usage":{"candownload":1,"canblog":0,"canprint":0,"canshare":1},"comments":{"_content":"18"},"notes":{"note":[]},"people":{"haspeople":0},"tags":{"tag":[{"id":"127736860-30418046450-223","author":"127742200@N05","authorname":"Cirila \u005cu0160","raw":"sunset","_content":"sunset","machine_tag":0},{"id":"127736860-30418046450-4146","author":"127742200@N05","authorname":"Cirila \u005cu0160","raw":"autum","_content":"autum","machine_tag":0}]},"urls":{"url":[{"type":"photopage","_content":"https:\u005c/\u005c/www.flickr.com\u005c/photos\u005c/127742200@N05\u005c/30418046450\u005c/"}]},"media":"photo"},"stat":"ok"})
p66
sS'https://api.flickr.com/services/rest/?format=json&method=flickr.photos.getInfo&per_page=50&photo_id=30681904126&tag_mode=all&tags=sunset'
p67
VjsonFlickrApi({"photo":{"id":"30681904126","secret":"6560a4b1d1","server":"5339","farm":6,"dateuploaded":"1478031725","isfavorite":0,"license":"0","safety_level":"0","rotation":0,"originalsecret":"9eb3f1299b","originalformat":"jpg","owner":{"nsid":"57790460@N04","username":"magicsylv1","realname":"sylvain delage","location":"","iconserver":"5089","iconfarm":6,"path_alias":"unjourunephoto2011"},"title":{"_content":"Bord de Loire dans la Ni\u005cu00e8vre"},"description":{"_content":""},"visibility":{"ispublic":1,"isfriend":0,"isfamily":0},"dates":{"posted":"1478031725","taken":"2016-10-22 18:33:54","takengranularity":"0","takenunknown":"0","lastupdate":"1478031726"},"views":"30","editability":{"cancomment":0,"canaddmeta":0},"publiceditability":{"cancomment":1,"canaddmeta":0},"usage":{"candownload":1,"canblog":0,"canprint":0,"canshare":0},"comments":{"_content":"0"},"notes":{"note":[]},"people":{"haspeople":0},"tags":{"tag":[{"id":"57758321-30681904126-223","author":"57790460@N04","authorname":"magicsylv1","raw":"sunset","_content":"sunset","machine_tag":0},{"id":"57758321-30681904126-1709598","author":"57790460@N04","authorname":"magicsylv1","raw":"Ni\u005cu00e8vre","_content":"ni\u005cu00e8vre","machine_tag":0},{"id":"57758321-30681904126-42807","author":"57790460@N04","authorname":"magicsylv1","raw":"Loire","_content":"loire","machine_tag":0}]},"urls":{"url":[{"type":"photopage","_content":"https:\u005c/\u005c/www.flickr.com\u005c/photos\u005c/unjourunephoto2011\u005c/30681904126\u005c/"}]},"media":"photo"},"stat":"ok"})
p68
sS'https://api.flickr.com/services/rest/?format=json&method=flickr.photos.getInfo&per_page=50&photo_id=30681876086&tag_mode=all&tags=sunset'
p69
VjsonFlickrApi({"photo":{"id":"30681876086","secret":"c481c3d452","server":"5500","farm":6,"dateuploaded":"1478031585","isfavorite":0,"license":"0","safety_level":"0","rotation":0,"owner":{"nsid":"13361224@N03","username":"paxalgra","realname":"Paul Algra","location":"The Netherlands","iconserver":"1496","iconfarm":2,"path_alias":"pix-pax"},"title":{"_content":"Stranded on the beach"},"description":{"_content":"<a href=\u005c"http:\u005c/\u005c/www.paulalgra.com\u005c" rel=\u005c"nofollow\u005c">www.paulalgra.com<\u005c/a>"},"visibility":{"ispublic":1,"isfriend":0,"isfamily":0},"dates":{"posted":"1478031585","taken":"2016-10-28 14:30:01","takengranularity":0,"takenunknown":"1","lastupdate":"1507334971"},"views":"1062","editability":{"cancomment":0,"canaddmeta":0},"publiceditability":{"cancomment":1,"canaddmeta":0},"usage":{"candownload":0,"canblog":0,"canprint":0,"canshare":1},"comments":{"_content":"4"},"notes":{"note":[]},"people":{"haspeople":0},"tags":{"tag":[{"id":"13338170-30681876086-1215","author":"13361224@N03","authorname":"paxalgra","raw":"Terschelling","_content":"terschelling","machine_tag":0},{"id":"13338170-30681876086-744075","author":"13361224@N03","authorname":"paxalgra","raw":"Midsland","_content":"midsland","machine_tag":0},{"id":"13338170-30681876086-536","author":"13361224@N03","authorname":"paxalgra","raw":"Holland","_content":"holland","machine_tag":0},{"id":"13338170-30681876086-804","author":"13361224@N03","authorname":"paxalgra","raw":"Netherlands","_content":"netherlands","machine_tag":0},{"id":"13338170-30681876086-704","author":"13361224@N03","authorname":"paxalgra","raw":"beach","_content":"beach","machine_tag":0},{"id":"13338170-30681876086-2875","author":"13361224@N03","authorname":"paxalgra","raw":"sand","_content":"sand","machine_tag":0},{"id":"13338170-30681876086-1042","author":"13361224@N03","authorname":"paxalgra","raw":"metal","_content":"metal","machine_tag":0},{"id":"13338170-30681876086-3037","author":"13361224@N03","authorname":"paxalgra","raw":"rust","_content":"rust","machine_tag":0},{"id":"13338170-30681876086-223","author":"13361224@N03","authorname":"paxalgra","raw":"sunset","_content":"sunset","machine_tag":0},{"id":"13338170-30681876086-121","author":"13361224@N03","authorname":"paxalgra","raw":"travel","_content":"travel","machine_tag":0}]},"location":{"latitude":"53.408420","longitude":"5.283823","accuracy":"14","context":"0","locality":{"_content":"Midsland","place_id":"QqajyZNWUbuIcDc","woeid":"731690"},"county":{"_content":"Terschelling","place_id":".6BOkc9QUL8BndfvpA","woeid":"12592421"},"region":{"_content":"Frise","place_id":"PWJCI6hTUb5_fg7S","woeid":"2346374"},"country":{"_content":"Netherlands","place_id":"Exbw8apTUb6236fOVA","woeid":"23424909"},"place_id":"QqajyZNWUbuIcDc","woeid":"731690"},"geoperms":{"ispublic":1,"iscontact":0,"isfriend":0,"isfamily":0},"urls":{"url":[{"type":"photopage","_content":"https:\u005c/\u005c/www.flickr.com\u005c/photos\u005c/pix-pax\u005c/30681876086\u005c/"}]},"media":"photo"},"stat":"ok"})
p70
sS'https://api.flickr.com/services/rest/?format=json&method=flickr.photos.getInfo&per_page=50&photo_id=30086194764&tag_mode=all&tags=sunset'
p71
VjsonFlickrApi({"photo":{"id":"30086194764","secret":"2ea8cab633","server":"5516","farm":6,"dateuploaded":"1478031142","isfavorite":0,"license":"0","safety_level":"0","rotation":0,"originalsecret":"e831f8986b","originalformat":"jpg","owner":{"nsid":"142594009@N04","username":"TheAnthonyBrooks","realname":"Anthony Brooks","location":"","iconserver":"7427","iconfarm":8,"path_alias":"theanthonybrooks"},"title":{"_content":"Lazise - 10\u005c/22"},"description":{"_content":""},"visibility":{"ispublic":1,"isfriend":0,"isfamily":0},"dates":{"posted":"1478031142","taken":"2016-10-22 12:28:54","takengranularity":"0","takenunknown":"0","lastupdate":"1478031147"},"views":"12","editability":{"cancomment":0,"canaddmeta":0},"publiceditability":{"cancomment":1,"canaddmeta":0},"usage":{"candownload":1,"canblog":0,"canprint":0,"canshare":1},"comments":{"_content":"0"},"notes":{"note":[]},"people":{"haspeople":0},"tags":{"tag":[{"id":"142561870-30086194764-288814","author":"142594009@N04","authorname":"TheAnthonyBrooks","raw":"Lazise","_content":"lazise","machine_tag":0},{"id":"142561870-30086194764-297","author":"142594009@N04","authorname":"TheAnthonyBrooks","raw":"Italy","_content":"italy","machine_tag":0},{"id":"142561870-30086194764-3272","author":"142594009@N04","authorname":"TheAnthonyBrooks","raw":"Europe","_content":"europe","machine_tag":0},{"id":"142561870-30086194764-400","author":"142594009@N04","authorname":"TheAnthonyBrooks","raw":"Lake","_content":"lake","machine_tag":0},{"id":"142561870-30086194764-3140","author":"142594009@N04","authorname":"TheAnthonyBrooks","raw":"Garda","_content":"garda","machine_tag":0},{"id":"142561870-30086194764-223","author":"142594009@N04","authorname":"TheAnthonyBrooks","raw":"Sunset","_content":"sunset","machine_tag":0},{"id":"142561870-30086194764-1783","author":"142594009@N04","authorname":"TheAnthonyBrooks","raw":"Boats","_content":"boats","machine_tag":0},{"id":"142561870-30086194764-791","author":"142594009@N04","authorname":"TheAnthonyBrooks","raw":"Nature","_content":"nature","machine_tag":0},{"id":"142561870-30086194764-1174","author":"142594009@N04","authorname":"TheAnthonyBrooks","raw":"Architecture","_content":"architecture","machine_tag":0},{"id":"142561870-30086194764-1312","author":"142594009@N04","authorname":"TheAnthonyBrooks","raw":"Port","_content":"port","machine_tag":0},{"id":"142561870-30086194764-298853180","author":"142594009@N04","authorname":"TheAnthonyBrooks","raw":"SketchyTravels","_content":"sketchytravels","machine_tag":0},{"id":"142561870-30086194764-121","author":"142594009@N04","authorname":"TheAnthonyBrooks","raw":"Travel","_content":"travel","machine_tag":0}]},"urls":{"url":[{"type":"photopage","_content":"https:\u005c/\u005c/www.flickr.com\u005c/photos\u005c/theanthonybrooks\u005c/30086194764\u005c/"}]},"media":"photo"},"stat":"ok"})
p72
sS'https://api.flickr.com/services/rest/?format=json&method=flickr.photos.getInfo&per_page=50&photo_id=30718611465&tag_mode=all&tags=sunset'
p73
VjsonFlickrApi({"photo":{"id":"30718611465","secret":"8412afd958","server":"5784","farm":6,"dateuploaded":"1478031140","isfavorite":0,"license":"0","safety_level":"0","rotation":0,"originalsecret":"11ae4942e3","originalformat":"jpg","owner":{"nsid":"142594009@N04","username":"TheAnthonyBrooks","realname":"Anthony Brooks","location":"","iconserver":"7427","iconfarm":8,"path_alias":"theanthonybrooks"},"title":{"_content":"Lazise - 10\u005c/22"},"description":{"_content":""},"visibility":{"ispublic":1,"isfriend":0,"isfamily":0},"dates":{"posted":"1478031140","taken":"2016-10-22 09:54:27","takengranularity":"0","takenunknown":"0","lastupdate":"1478031147"},"views":"13","editability":{"cancomment":0,"canaddmeta":0},"publiceditability":{"cancomment":1,"canaddmeta":0},"usage":{"candownload":1,"canblog":0,"canprint":0,"canshare":1},"comments":{"_content":"0"},"notes":{"note":[]},"people":{"haspeople":0},"tags":{"tag":[{"id":"142561870-30718611465-288814","author":"142594009@N04","authorname":"TheAnthonyBrooks","raw":"Lazise","_content":"lazise","machine_tag":0},{"id":"142561870-30718611465-297","author":"142594009@N04","authorname":"TheAnthonyBrooks","raw":"Italy","_content":"italy","machine_tag":0},{"id":"142561870-30718611465-3272","author":"142594009@N04","authorname":"TheAnthonyBrooks","raw":"Europe","_content":"europe","machine_tag":0},{"id":"142561870-30718611465-400","author":"142594009@N04","authorname":"TheAnthonyBrooks","raw":"Lake","_content":"lake","machine_tag":0},{"id":"142561870-30718611465-3140","author":"142594009@N04","authorname":"TheAnthonyBrooks","raw":"Garda","_content":"garda","machine_tag":0},{"id":"142561870-30718611465-223","author":"142594009@N04","authorname":"TheAnthonyBrooks","raw":"Sunset","_content":"sunset","machine_tag":0},{"id":"142561870-30718611465-1783","author":"142594009@N04","authorname":"TheAnthonyBrooks","raw":"Boats","_content":"boats","machine_tag":0},{"id":"142561870-30718611465-791","author":"142594009@N04","authorname":"TheAnthonyBrooks","raw":"Nature","_content":"nature","machine_tag":0},{"id":"142561870-30718611465-1174","author":"142594009@N04","authorname":"TheAnthonyBrooks","raw":"Architecture","_content":"architecture","machine_tag":0},{"id":"142561870-30718611465-1312","author":"142594009@N04","authorname":"TheAnthonyBrooks","raw":"Port","_content":"port","machine_tag":0},{"id":"142561870-30718611465-298853180","author":"142594009@N04","authorname":"TheAnthonyBrooks","raw":"SketchyTravels","_content":"sketchytravels","machine_tag":0},{"id":"142561870-30718611465-121","author":"142594009@N04","authorname":"TheAnthonyBrooks","raw":"Travel","_content":"travel","machine_tag":0}]},"urls":{"url":[{"type":"photopage","_content":"https:\u005c/\u005c/www.flickr.com\u005c/photos\u005c/theanthonybrooks\u005c/30718611465\u005c/"}]},"media":"photo"},"stat":"ok"})
p74
sS'https://api.flickr.com/services/rest/?format=json&method=flickr.photos.getInfo&per_page=50&photo_id=30418075560&tag_mode=all&tags=sunset'
p75
VjsonFlickrApi({"photo":{"id":"30418075560","secret":"b2d7fd22aa","server":"5794","farm":6,"dateuploaded":"1478031288","isfavorite":0,"license":"0","safety_level":"0","rotation":0,"originalsecret":"707a590a41","originalformat":"jpg","owner":{"nsid":"144579656@N06","username":"raquelbalbino1","realname":"Raquel Balbino","location":"","iconserver":"4249","iconfarm":5,"path_alias":null},"title":{"_content":""},"description":{"_content":""},"visibility":{"ispublic":1,"isfriend":0,"isfamily":0},"dates":{"posted":"1478031288","taken":"2016-10-02 20:47:55","takengranularity":"0","takenunknown":"0","lastupdate":"1478092344"},"views":"8","editability":{"cancomment":0,"canaddmeta":0},"publiceditability":{"cancomment":1,"canaddmeta":0},"usage":{"candownload":1,"canblog":0,"canprint":0,"canshare":1},"comments":{"_content":"0"},"notes":{"note":[]},"people":{"haspeople":0},"tags":{"tag":[{"id":"144534334-30418075560-282","author":"144579656@N06","authorname":"raquelbalbino1","raw":"sky","_content":"sky","machine_tag":0},{"id":"144534334-30418075560-223","author":"144579656@N06","authorname":"raquelbalbino1","raw":"sunset","_content":"sunset","machine_tag":0}]},"urls":{"url":[{"type":"photopage","_content":"https:\u005c/\u005c/www.flickr.com\u005c/photos\u005c/144579656@N06\u005c/30418075560\u005c/"}]},"media":"photo"},"stat":"ok"})
p76
sS'https://api.flickr.com/services/rest/?format=json&method=flickr.photos.getInfo&per_page=50&photo_id=30718612745&tag_mode=all&tags=sunset'
p77
VjsonFlickrApi({"photo":{"id":"30718612745","secret":"8f95365123","server":"5836","farm":6,"dateuploaded":"1478031139","isfavorite":0,"license":"0","safety_level":"0","rotation":0,"originalsecret":"38f0367a4f","originalformat":"jpg","owner":{"nsid":"142594009@N04","username":"TheAnthonyBrooks","realname":"Anthony Brooks","location":"","iconserver":"7427","iconfarm":8,"path_alias":"theanthonybrooks"},"title":{"_content":"Lazise - 10\u005c/22"},"description":{"_content":""},"visibility":{"ispublic":1,"isfriend":0,"isfamily":0},"dates":{"posted":"1478031139","taken":"2016-10-22 09:40:19","takengranularity":"0","takenunknown":"0","lastupdate":"1478031147"},"views":"14","editability":{"cancomment":0,"canaddmeta":0},"publiceditability":{"cancomment":1,"canaddmeta":0},"usage":{"candownload":1,"canblog":0,"canprint":0,"canshare":1},"comments":{"_content":"0"},"notes":{"note":[]},"people":{"haspeople":0},"tags":{"tag":[{"id":"142561870-30718612745-288814","author":"142594009@N04","authorname":"TheAnthonyBrooks","raw":"Lazise","_content":"lazise","machine_tag":0},{"id":"142561870-30718612745-297","author":"142594009@N04","authorname":"TheAnthonyBrooks","raw":"Italy","_content":"italy","machine_tag":0},{"id":"142561870-30718612745-3272","author":"142594009@N04","authorname":"TheAnthonyBrooks","raw":"Europe","_content":"europe","machine_tag":0},{"id":"142561870-30718612745-400","author":"142594009@N04","authorname":"TheAnthonyBrooks","raw":"Lake","_content":"lake","machine_tag":0},{"id":"142561870-30718612745-3140","author":"142594009@N04","authorname":"TheAnthonyBrooks","raw":"Garda","_content":"garda","machine_tag":0},{"id":"142561870-30718612745-223","author":"142594009@N04","authorname":"TheAnthonyBrooks","raw":"Sunset","_content":"sunset","machine_tag":0},{"id":"142561870-30718612745-1783","author":"142594009@N04","authorname":"TheAnthonyBrooks","raw":"Boats","_content":"boats","machine_tag":0},{"id":"142561870-30718612745-791","author":"142594009@N04","authorname":"TheAnthonyBrooks","raw":"Nature","_content":"nature","machine_tag":0},{"id":"142561870-30718612745-1174","author":"142594009@N04","authorname":"TheAnthonyBrooks","raw":"Architecture","_content":"architecture","machine_tag":0},{"id":"142561870-30718612745-1312","author":"142594009@N04","authorname":"TheAnthonyBrooks","raw":"Port","_content":"port","machine_tag":0},{"id":"142561870-30718612745-298853180","author":"142594009@N04","authorname":"TheAnthonyBrooks","raw":"SketchyTravels","_content":"sketchytravels","machine_tag":0},{"id":"142561870-30718612745-121","author":"142594009@N04","authorname":"TheAnthonyBrooks","raw":"Travel","_content":"travel","machine_tag":0}]},"urls":{"url":[{"type":"photopage","_content":"https:\u005c/\u005c/www.flickr.com\u005c/photos\u005c/theanthonybrooks\u005c/30718612745\u005c/"}]},"media":"photo"},"stat":"ok"})
p78
sS'https://api.flickr.com/services/rest/?format=json&method=flickr.photos.getInfo&per_page=50&photo_id=30416394900&tag_mode=all&tags=sunset'
p79
VjsonFlickrApi({"photo":{"id":"30416394900","secret":"de36492dac","server":"5714","farm":6,"dateuploaded":"1478032413","isfavorite":0,"license":"0","safety_level":"0","rotation":0,"owner":{"nsid":"85477486@N07","username":"bencze82","realname":"","location":"Budapest, Hungary","iconserver":"8403","iconfarm":9,"path_alias":"bencze82"},"title":{"_content":"Tihany"},"description":{"_content":""},"visibility":{"ispublic":1,"isfriend":0,"isfamily":0},"dates":{"posted":"1478032413","taken":"2016-07-30 19:33:01","takengranularity":"0","takenunknown":"0","lastupdate":"1478032416"},"views":"46","editability":{"cancomment":0,"canaddmeta":0},"publiceditability":{"cancomment":1,"canaddmeta":0},"usage":{"candownload":0,"canblog":0,"canprint":0,"canshare":1},"comments":{"_content":"0"},"notes":{"note":[]},"people":{"haspeople":0},"tags":{"tag":[{"id":"85456156-30416394900-3393","author":"85477486@N07","authorname":"bencze82","raw":"Hungary","_content":"hungary","machine_tag":false},{"id":"85456156-30416394900-239611","author":"85477486@N07","authorname":"bencze82","raw":"Magyarorsz\u005cu00e1g","_content":"magyarorsz\u005cu00e1g","machine_tag":false},{"id":"85456156-30416394900-1382","author":"85477486@N07","authorname":"bencze82","raw":"Canon","_content":"canon","machine_tag":0},{"id":"85456156-30416394900-1966","author":"85477486@N07","authorname":"bencze82","raw":"EOS","_content":"eos","machine_tag":0},{"id":"85456156-30416394900-10289565","author":"85477486@N07","authorname":"bencze82","raw":"700D","_content":"700d","machine_tag":0},{"id":"85456156-30416394900-835195","author":"85477486@N07","authorname":"bencze82","raw":"Ny\u005cu00e1r","_content":"ny\u005cu00e1r","machine_tag":0},{"id":"85456156-30416394900-245","author":"85477486@N07","authorname":"bencze82","raw":"Summer","_content":"summer","machine_tag":0},{"id":"85456156-30416394900-1237","author":"85477486@N07","authorname":"bencze82","raw":"strand","_content":"strand","machine_tag":0},{"id":"85456156-30416394900-12449","author":"85477486@N07","authorname":"bencze82","raw":"part","_content":"part","machine_tag":0},{"id":"85456156-30416394900-704","author":"85477486@N07","authorname":"bencze82","raw":"beach","_content":"beach","machine_tag":false},{"id":"85456156-30416394900-31578","author":"85477486@N07","authorname":"bencze82","raw":"naplemente","_content":"naplemente","machine_tag":0},{"id":"85456156-30416394900-223","author":"85477486@N07","authorname":"bencze82","raw":"sunset","_content":"sunset","machine_tag":false},{"id":"85456156-30416394900-73731","author":"85477486@N07","authorname":"bencze82","raw":"t\u005cu00f3","_content":"t\u005cu00f3","machine_tag":0},{"id":"85456156-30416394900-400","author":"85477486@N07","authorname":"bencze82","raw":"lake","_content":"lake","machine_tag":false},{"id":"85456156-30416394900-67163","author":"85477486@N07","authorname":"bencze82","raw":"Voigtl\u005cu00e4nder","_content":"voigtl\u005cu00e4nder","machine_tag":0}]},"urls":{"url":[{"type":"photopage","_content":"https:\u005c/\u005c/www.flickr.com\u005c/photos\u005c/bencze82\u005c/30416394900\u005c/"}]},"media":"photo"},"stat":"ok"})
p80
sS'https://api.flickr.com/services/rest/?format=json&method=flickr.photos.getInfo&per_page=50&photo_id=30602056932&tag_mode=all&tags=sunset'
p81
VjsonFlickrApi({"photo":{"id":"30602056932","secret":"53fd7eeffd","server":"5720","farm":6,"dateuploaded":"1478032391","isfavorite":0,"license":"0","safety_level":"0","rotation":0,"owner":{"nsid":"94946017@N00","username":"Laurence Baker","realname":"Laurence  Baker","location":"Cowes, Isle of Wight, England, England","iconserver":"1458","iconfarm":2,"path_alias":"laurencedbaker"},"title":{"_content":"Brook Bay at Sunset"},"description":{"_content":"Clich\u005cu00e9 alert. Brook Bay, Isle of Wight at Sunset."},"visibility":{"ispublic":1,"isfriend":0,"isfamily":0},"dates":{"posted":"1478032391","taken":"2016-10-29 17:33:03","takengranularity":"0","takenunknown":"0","lastupdate":"1494384803"},"views":"156","editability":{"cancomment":0,"canaddmeta":0},"publiceditability":{"cancomment":1,"canaddmeta":0},"usage":{"candownload":0,"canblog":0,"canprint":0,"canshare":0},"comments":{"_content":"0"},"notes":{"note":[]},"people":{"haspeople":0},"tags":{"tag":[{"id":"6335671-30602056932-825564","author":"94946017@N00","authorname":"Laurence Baker","raw":"Brighstone","_content":"brighstone","machine_tag":0},{"id":"6335671-30602056932-4153534","author":"94946017@N00","authorname":"Laurence Baker","raw":"Brook Bay","_content":"brookbay","machine_tag":0},{"id":"6335671-30602056932-4891","author":"94946017@N00","authorname":"Laurence Baker","raw":"Dusk","_content":"dusk","machine_tag":0},{"id":"6335671-30602056932-56210","author":"94946017@N00","authorname":"Laurence Baker","raw":"HDR","_content":"hdr","machine_tag":0},{"id":"6335671-30602056932-15694","author":"94946017@N00","authorname":"Laurence Baker","raw":"Isle of Wight","_content":"isleofwight","machine_tag":0},{"id":"6335671-30602056932-14863","author":"94946017@N00","authorname":"Laurence Baker","raw":"Ledge","_content":"ledge","machine_tag":0},{"id":"6335671-30602056932-32904","author":"94946017@N00","authorname":"Laurence Baker","raw":"Reef","_content":"reef","machine_tag":0},{"id":"6335671-30602056932-228","author":"94946017@N00","authorname":"Laurence Baker","raw":"Sea","_content":"sea","machine_tag":0},{"id":"6335671-30602056932-282","author":"94946017@N00","authorname":"Laurence Baker","raw":"Sky","_content":"sky","machine_tag":0},{"id":"6335671-30602056932-149976","author":"94946017@N00","authorname":"Laurence Baker","raw":"Sun Flare","_content":"sunflare","machine_tag":0},{"id":"6335671-30602056932-4129","author":"94946017@N00","authorname":"Laurence Baker","raw":"Sundown","_content":"sundown","machine_tag":0},{"id":"6335671-30602056932-223","author":"94946017@N00","authorname":"Laurence Baker","raw":"Sunset","_content":"sunset","machine_tag":0},{"id":"6335671-30602056932-800","author":"94946017@N00","authorname":"Laurence Baker","raw":"Water","_content":"water","machine_tag":0},{"id":"6335671-30602056932-12640419","author":"94946017@N00","authorname":"Laurence Baker","raw":"Dunsbury","_content":"dunsbury","machine_tag":0},{"id":"6335671-30602056932-279","author":"94946017@N00","authorname":"Laurence Baker","raw":"England","_content":"england","machine_tag":0},{"id":"6335671-30602056932-57223833","author":"94946017@N00","authorname":"Laurence Baker","raw":"exif:aperture=\u005cu0192 \u005c/ 11","_content":"exif:aperture=\u005cu019211","machine_tag":1},{"id":"6335671-30602056932-33168639","author":"94946017@N00","authorname":"Laurence Baker","raw":"camera:make=sony","_content":"camera:make=sony","machine_tag":1},{"id":"6335671-30602056932-316749666","author":"94946017@N00","authorname":"Laurence Baker","raw":"geo:lon=-1.4647222222217","_content":"geo:lon=14647222222217","machine_tag":1},{"id":"6335671-30602056932-24713071","author":"94946017@N00","authorname":"Laurence Baker","raw":"exif:make=sony","_content":"exif:make=sony","machine_tag":1},{"id":"6335671-30602056932-23578610","author":"94946017@N00","authorname":"Laurence Baker","raw":"geo:country=england","_content":"geo:country=england","machine_tag":1},{"id":"6335671-30602056932-316749676","author":"94946017@N00","authorname":"Laurence Baker","raw":"geo:lat=50.6525","_content":"geo:lat=506525","machine_tag":1},{"id":"6335671-30602056932-282208544","author":"94946017@N00","authorname":"Laurence Baker","raw":"exif:lens=e 21mm f2.8","_content":"exif:lens=e21mmf28","machine_tag":1},{"id":"6335671-30602056932-324971053","author":"94946017@N00","authorname":"Laurence Baker","raw":"geo:city=dunsbury","_content":"geo:city=dunsbury","machine_tag":1},{"id":"6335671-30602056932-318521343","author":"94946017@N00","authorname":"Laurence Baker","raw":"geo:location=freshwater","_content":"geo:location=freshwater","machine_tag":1},{"id":"6335671-30602056932-193381635","author":"94946017@N00","authorname":"Laurence Baker","raw":"exif:focal_length=21 mm","_content":"exif:focallength=21mm","machine_tag":1},{"id":"6335671-30602056932-74446787","author":"94946017@N00","authorname":"Laurence Baker","raw":"geo:state=isle of wight","_content":"geo:state=isleofwight","machine_tag":1},{"id":"6335671-30602056932-264448046","author":"94946017@N00","authorname":"Laurence Baker","raw":"camera:model=ilce-7rm2","_content":"camera:model=ilce7rm2","machine_tag":1},{"id":"6335671-30602056932-192368454","author":"94946017@N00","authorname":"Laurence Baker","raw":"exif:iso_speed=100","_content":"exif:isospeed=100","machine_tag":1},{"id":"6335671-30602056932-264448056","author":"94946017@N00","authorname":"Laurence Baker","raw":"exif:model=ilce-7rm2","_content":"exif:model=ilce7rm2","machine_tag":1}]},"location":{"latitude":"50.652500","longitude":"-1.464722","accuracy":"16","context":"0","locality":{"_content":"Brook","place_id":"VHICVXRQVrtryw","woeid":"14144"},"county":{"_content":"Isle of Wight","place_id":"Vl03XUdQULxHfqusSQ","woeid":"12602172"},"region":{"_content":"England","place_id":"2eIY2QFTVr_DwWZNLg","woeid":"24554868"},"country":{"_content":"United Kingdom","place_id":"cnffEpdTUb5v258BBA","woeid":"23424975"},"place_id":"VHICVXRQVrtryw","woeid":"14144"},"geoperms":{"ispublic":1,"iscontact":0,"isfriend":0,"isfamily":0},"urls":{"url":[{"type":"photopage","_content":"https:\u005c/\u005c/www.flickr.com\u005c/photos\u005c/laurencedbaker\u005c/30602056932\u005c/"}]},"media":"photo"},"stat":"ok"})
p82
sS'https://api.flickr.com/services/rest/?format=json&method=flickr.photos.getInfo&per_page=50&photo_id=30084573614&tag_mode=all&tags=sunset'
p83
VjsonFlickrApi({"photo":{"id":"30084573614","secret":"36109dcfd5","server":"5755","farm":6,"dateuploaded":"1478032414","isfavorite":0,"license":"0","safety_level":"0","rotation":0,"owner":{"nsid":"85477486@N07","username":"bencze82","realname":"","location":"Budapest, Hungary","iconserver":"8403","iconfarm":9,"path_alias":"bencze82"},"title":{"_content":"Tihany"},"description":{"_content":""},"visibility":{"ispublic":1,"isfriend":0,"isfamily":0},"dates":{"posted":"1478032414","taken":"2016-07-30 20:04:04","takengranularity":"0","takenunknown":"0","lastupdate":"1483982295"},"views":"56","editability":{"cancomment":0,"canaddmeta":0},"publiceditability":{"cancomment":1,"canaddmeta":0},"usage":{"candownload":0,"canblog":0,"canprint":0,"canshare":1},"comments":{"_content":"0"},"notes":{"note":[]},"people":{"haspeople":0},"tags":{"tag":[{"id":"85456156-30084573614-3393","author":"85477486@N07","authorname":"bencze82","raw":"Hungary","_content":"hungary","machine_tag":false},{"id":"85456156-30084573614-239611","author":"85477486@N07","authorname":"bencze82","raw":"Magyarorsz\u005cu00e1g","_content":"magyarorsz\u005cu00e1g","machine_tag":false},{"id":"85456156-30084573614-1382","author":"85477486@N07","authorname":"bencze82","raw":"Canon","_content":"canon","machine_tag":false},{"id":"85456156-30084573614-1966","author":"85477486@N07","authorname":"bencze82","raw":"EOS","_content":"eos","machine_tag":false},{"id":"85456156-30084573614-10289565","author":"85477486@N07","authorname":"bencze82","raw":"700D","_content":"700d","machine_tag":false},{"id":"85456156-30084573614-835195","author":"85477486@N07","authorname":"bencze82","raw":"Ny\u005cu00e1r","_content":"ny\u005cu00e1r","machine_tag":false},{"id":"85456156-30084573614-245","author":"85477486@N07","authorname":"bencze82","raw":"Summer","_content":"summer","machine_tag":false},{"id":"85456156-30084573614-1237","author":"85477486@N07","authorname":"bencze82","raw":"strand","_content":"strand","machine_tag":false},{"id":"85456156-30084573614-12449","author":"85477486@N07","authorname":"bencze82","raw":"part","_content":"part","machine_tag":false},{"id":"85456156-30084573614-704","author":"85477486@N07","authorname":"bencze82","raw":"beach","_content":"beach","machine_tag":false},{"id":"85456156-30084573614-31578","author":"85477486@N07","authorname":"bencze82","raw":"naplemente","_content":"naplemente","machine_tag":0},{"id":"85456156-30084573614-223","author":"85477486@N07","authorname":"bencze82","raw":"sunset","_content":"sunset","machine_tag":false},{"id":"85456156-30084573614-73731","author":"85477486@N07","authorname":"bencze82","raw":"t\u005cu00f3","_content":"t\u005cu00f3","machine_tag":0},{"id":"85456156-30084573614-400","author":"85477486@N07","authorname":"bencze82","raw":"lake","_content":"lake","machine_tag":false},{"id":"85456156-30084573614-67163","author":"85477486@N07","authorname":"bencze82","raw":"Voigtl\u005cu00e4nder","_content":"voigtl\u005cu00e4nder","machine_tag":false}]},"urls":{"url":[{"type":"photopage","_content":"https:\u005c/\u005c/www.flickr.com\u005c/photos\u005c/bencze82\u005c/30084573614\u005c/"}]},"media":"photo"},"stat":"ok"})
p84
sS'https://api.flickr.com/services/rest/?format=json&method=flickr.photos.getInfo&per_page=50&photo_id=30630090441&tag_mode=all&tags=sunset'
p85
VjsonFlickrApi({"photo":{"id":"30630090441","secret":"5b4c0f65aa","server":"5544","farm":6,"dateuploaded":"1478031135","isfavorite":0,"license":"0","safety_level":"0","rotation":0,"originalsecret":"7fa0820eb0","originalformat":"jpg","owner":{"nsid":"142594009@N04","username":"TheAnthonyBrooks","realname":"Anthony Brooks","location":"","iconserver":"7427","iconfarm":8,"path_alias":"theanthonybrooks"},"title":{"_content":"Lazise - 10\u005c/22"},"description":{"_content":""},"visibility":{"ispublic":1,"isfriend":0,"isfamily":0},"dates":{"posted":"1478031135","taken":"2016-10-22 07:32:17","takengranularity":"0","takenunknown":"0","lastupdate":"1478031296"},"views":"19","editability":{"cancomment":0,"canaddmeta":0},"publiceditability":{"cancomment":1,"canaddmeta":0},"usage":{"candownload":1,"canblog":0,"canprint":0,"canshare":1},"comments":{"_content":"0"},"notes":{"note":[]},"people":{"haspeople":0},"tags":{"tag":[{"id":"142561870-30630090441-288814","author":"142594009@N04","authorname":"TheAnthonyBrooks","raw":"Lazise","_content":"lazise","machine_tag":0},{"id":"142561870-30630090441-297","author":"142594009@N04","authorname":"TheAnthonyBrooks","raw":"Italy","_content":"italy","machine_tag":0},{"id":"142561870-30630090441-3272","author":"142594009@N04","authorname":"TheAnthonyBrooks","raw":"Europe","_content":"europe","machine_tag":0},{"id":"142561870-30630090441-400","author":"142594009@N04","authorname":"TheAnthonyBrooks","raw":"Lake","_content":"lake","machine_tag":0},{"id":"142561870-30630090441-3140","author":"142594009@N04","authorname":"TheAnthonyBrooks","raw":"Garda","_content":"garda","machine_tag":0},{"id":"142561870-30630090441-223","author":"142594009@N04","authorname":"TheAnthonyBrooks","raw":"Sunset","_content":"sunset","machine_tag":0},{"id":"142561870-30630090441-1783","author":"142594009@N04","authorname":"TheAnthonyBrooks","raw":"Boats","_content":"boats","machine_tag":0},{"id":"142561870-30630090441-791","author":"142594009@N04","authorname":"TheAnthonyBrooks","raw":"Nature","_content":"nature","machine_tag":0},{"id":"142561870-30630090441-1174","author":"142594009@N04","authorname":"TheAnthonyBrooks","raw":"Architecture","_content":"architecture","machine_tag":0},{"id":"142561870-30630090441-1312","author":"142594009@N04","authorname":"TheAnthonyBrooks","raw":"Port","_content":"port","machine_tag":0},{"id":"142561870-30630090441-298853180","author":"142594009@N04","authorname":"TheAnthonyBrooks","raw":"SketchyTravels","_content":"sketchytravels","machine_tag":0},{"id":"142561870-30630090441-121","author":"142594009@N04","authorname":"TheAnthonyBrooks","raw":"Travel","_content":"travel","machine_tag":0}]},"urls":{"url":[{"type":"photopage","_content":"https:\u005c/\u005c/www.flickr.com\u005c/photos\u005c/theanthonybrooks\u005c/30630090441\u005c/"}]},"media":"photo"},"stat":"ok"})
p86
sS'https://api.flickr.com/services/rest/?format=json&method=flickr.photos.getInfo&per_page=50&photo_id=30418044560&tag_mode=all&tags=sunset'
p87
VjsonFlickrApi({"photo":{"id":"30418044560","secret":"1117e7b0c7","server":"5515","farm":6,"dateuploaded":"1478031203","isfavorite":0,"license":"0","safety_level":"0","rotation":0,"originalsecret":"27e131e8f0","originalformat":"jpg","owner":{"nsid":"145180945@N07","username":"Sergi Vargas","realname":"Sergi Vargas","location":"","iconserver":"7714","iconfarm":8,"path_alias":null},"title":{"_content":"Difficult roads often lead to beautiful places"},"description":{"_content":""},"visibility":{"ispublic":1,"isfriend":0,"isfamily":0},"dates":{"posted":"1478031203","taken":"2016-11-01 18:31:47","takengranularity":"0","takenunknown":"0","lastupdate":"1483982255"},"views":"107","editability":{"cancomment":0,"canaddmeta":0},"publiceditability":{"cancomment":1,"canaddmeta":0},"usage":{"candownload":1,"canblog":0,"canprint":0,"canshare":1},"comments":{"_content":"0"},"notes":{"note":[]},"people":{"haspeople":0},"tags":{"tag":[{"id":"145159615-30418044560-955","author":"145180945@N07","authorname":"Sergi Vargas","raw":"bike","_content":"bike","machine_tag":0},{"id":"145159615-30418044560-228","author":"145180945@N07","authorname":"Sergi Vargas","raw":"sea","_content":"sea","machine_tag":0},{"id":"145159615-30418044560-223","author":"145180945@N07","authorname":"Sergi Vargas","raw":"sunset","_content":"sunset","machine_tag":false},{"id":"145159615-30418044560-282","author":"145180945@N07","authorname":"Sergi Vargas","raw":"sky","_content":"sky","machine_tag":false}]},"urls":{"url":[{"type":"photopage","_content":"https:\u005c/\u005c/www.flickr.com\u005c/photos\u005c/145180945@N07\u005c/30418044560\u005c/"}]},"media":"photo"},"stat":"ok"})
p88
sS'https://api.flickr.com/services/rest/?format=json&method=flickr.photos.getInfo&per_page=50&photo_id=30630094701&tag_mode=all&tags=sunset'
p89
VjsonFlickrApi({"photo":{"id":"30630094701","secret":"4607ef3df8","server":"5452","farm":6,"dateuploaded":"1478031133","isfavorite":0,"license":"0","safety_level":"0","rotation":0,"originalsecret":"535283aaec","originalformat":"jpg","owner":{"nsid":"142594009@N04","username":"TheAnthonyBrooks","realname":"Anthony Brooks","location":"","iconserver":"7427","iconfarm":8,"path_alias":"theanthonybrooks"},"title":{"_content":"Lazise - 10\u005c/22"},"description":{"_content":""},"visibility":{"ispublic":1,"isfriend":0,"isfamily":0},"dates":{"posted":"1478031133","taken":"2016-10-22 07:18:36","takengranularity":"0","takenunknown":"0","lastupdate":"1478031147"},"views":"13","editability":{"cancomment":0,"canaddmeta":0},"publiceditability":{"cancomment":1,"canaddmeta":0},"usage":{"candownload":1,"canblog":0,"canprint":0,"canshare":1},"comments":{"_content":"0"},"notes":{"note":[]},"people":{"haspeople":0},"tags":{"tag":[{"id":"142561870-30630094701-288814","author":"142594009@N04","authorname":"TheAnthonyBrooks","raw":"Lazise","_content":"lazise","machine_tag":0},{"id":"142561870-30630094701-297","author":"142594009@N04","authorname":"TheAnthonyBrooks","raw":"Italy","_content":"italy","machine_tag":0},{"id":"142561870-30630094701-3272","author":"142594009@N04","authorname":"TheAnthonyBrooks","raw":"Europe","_content":"europe","machine_tag":0},{"id":"142561870-30630094701-400","author":"142594009@N04","authorname":"TheAnthonyBrooks","raw":"Lake","_content":"lake","machine_tag":0},{"id":"142561870-30630094701-3140","author":"142594009@N04","authorname":"TheAnthonyBrooks","raw":"Garda","_content":"garda","machine_tag":0},{"id":"142561870-30630094701-223","author":"142594009@N04","authorname":"TheAnthonyBrooks","raw":"Sunset","_content":"sunset","machine_tag":0},{"id":"142561870-30630094701-1783","author":"142594009@N04","authorname":"TheAnthonyBrooks","raw":"Boats","_content":"boats","machine_tag":0},{"id":"142561870-30630094701-791","author":"142594009@N04","authorname":"TheAnthonyBrooks","raw":"Nature","_content":"nature","machine_tag":0},{"id":"142561870-30630094701-1174","author":"142594009@N04","authorname":"TheAnthonyBrooks","raw":"Architecture","_content":"architecture","machine_tag":0},{"id":"142561870-30630094701-1312","author":"142594009@N04","authorname":"TheAnthonyBrooks","raw":"Port","_content":"port","machine_tag":0},{"id":"142561870-30630094701-298853180","author":"142594009@N04","authorname":"TheAnthonyBrooks","raw":"SketchyTravels","_content":"sketchytravels","machine_tag":0},{"id":"142561870-30630094701-121","author":"142594009@N04","authorname":"TheAnthonyBrooks","raw":"Travel","_content":"travel","machine_tag":0}]},"urls":{"url":[{"type":"photopage","_content":"https:\u005c/\u005c/www.flickr.com\u005c/photos\u005c/theanthonybrooks\u005c/30630094701\u005c/"}]},"media":"photo"},"stat":"ok"})
p90
sS'https://api.flickr.com/services/rest/?format=json&method=flickr.photos.getInfo&per_page=50&photo_id=30681765456&tag_mode=all&tags=sunset'
p91
VjsonFlickrApi({"stat":"fail","code":1,"message":"Photo \u005c"30681765456\u005c" not found (invalid ID)"})
p92
sS'https://api.flickr.com/services/rest/?format=json&method=flickr.photos.getInfo&per_page=50&photo_id=30718604335&tag_mode=all&tags=sunset'
p93
VjsonFlickrApi({"photo":{"id":"30718604335","secret":"89489d57c2","server":"5524","farm":6,"dateuploaded":"1478031143","isfavorite":0,"license":"0","safety_level":"0","rotation":0,"originalsecret":"eb6429c8a4","originalformat":"jpg","owner":{"nsid":"142594009@N04","username":"TheAnthonyBrooks","realname":"Anthony Brooks","location":"","iconserver":"7427","iconfarm":8,"path_alias":"theanthonybrooks"},"title":{"_content":"Lazise - 10\u005c/22"},"description":{"_content":""},"visibility":{"ispublic":1,"isfriend":0,"isfamily":0},"dates":{"posted":"1478031143","taken":"2016-10-22 12:38:54","takengranularity":"0","takenunknown":"0","lastupdate":"1478031147"},"views":"12","editability":{"cancomment":0,"canaddmeta":0},"publiceditability":{"cancomment":1,"canaddmeta":0},"usage":{"candownload":1,"canblog":0,"canprint":0,"canshare":1},"comments":{"_content":"0"},"notes":{"note":[]},"people":{"haspeople":0},"tags":{"tag":[{"id":"142561870-30718604335-288814","author":"142594009@N04","authorname":"TheAnthonyBrooks","raw":"Lazise","_content":"lazise","machine_tag":0},{"id":"142561870-30718604335-297","author":"142594009@N04","authorname":"TheAnthonyBrooks","raw":"Italy","_content":"italy","machine_tag":0},{"id":"142561870-30718604335-3272","author":"142594009@N04","authorname":"TheAnthonyBrooks","raw":"Europe","_content":"europe","machine_tag":0},{"id":"142561870-30718604335-400","author":"142594009@N04","authorname":"TheAnthonyBrooks","raw":"Lake","_content":"lake","machine_tag":0},{"id":"142561870-30718604335-3140","author":"142594009@N04","authorname":"TheAnthonyBrooks","raw":"Garda","_content":"garda","machine_tag":0},{"id":"142561870-30718604335-223","author":"142594009@N04","authorname":"TheAnthonyBrooks","raw":"Sunset","_content":"sunset","machine_tag":0},{"id":"142561870-30718604335-1783","author":"142594009@N04","authorname":"TheAnthonyBrooks","raw":"Boats","_content":"boats","machine_tag":0},{"id":"142561870-30718604335-791","author":"142594009@N04","authorname":"TheAnthonyBrooks","raw":"Nature","_content":"nature","machine_tag":0},{"id":"142561870-30718604335-1174","author":"142594009@N04","authorname":"TheAnthonyBrooks","raw":"Architecture","_content":"architecture","machine_tag":0},{"id":"142561870-30718604335-1312","author":"142594009@N04","authorname":"TheAnthonyBrooks","raw":"Port","_content":"port","machine_tag":0},{"id":"142561870-30718604335-298853180","author":"142594009@N04","authorname":"TheAnthonyBrooks","raw":"SketchyTravels","_content":"sketchytravels","machine_tag":0},{"id":"142561870-30718604335-121","author":"142594009@N04","authorname":"TheAnthonyBrooks","raw":"Travel","_content":"travel","machine_tag":0}]},"urls":{"url":[{"type":"photopage","_content":"https:\u005c/\u005c/www.flickr.com\u005c/photos\u005c/theanthonybrooks\u005c/30718604335\u005c/"}]},"media":"photo"},"stat":"ok"})
p94
sS'https://api.flickr.com/services/rest/?format=json&method=flickr.photos.getInfo&per_page=50&photo_id=30630258871&tag_mode=all&tags=sunset'
p95
VjsonFlickrApi({"photo":{"id":"30630258871","secret":"63e8fd4d61","server":"5549","farm":6,"dateuploaded":"1478031743","isfavorite":0,"license":"0","safety_level":"0","rotation":0,"originalsecret":"9a519e13ca","originalformat":"jpg","owner":{"nsid":"23647600@N06","username":"phudd23","realname":"","location":"","iconserver":"0","iconfarm":0,"path_alias":null},"title":{"_content":"Tanna, Vanuatu"},"description":{"_content":""},"visibility":{"ispublic":1,"isfriend":0,"isfamily":0},"dates":{"posted":"1478031743","taken":"2016-03-22 05:28:11","takengranularity":"0","takenunknown":"0","lastupdate":"1478032187"},"views":"38","editability":{"cancomment":0,"canaddmeta":0},"publiceditability":{"cancomment":1,"canaddmeta":0},"usage":{"candownload":1,"canblog":0,"canprint":0,"canshare":1},"comments":{"_content":"0"},"notes":{"note":[]},"people":{"haspeople":0},"tags":{"tag":[{"id":"23602278-30630258871-228","author":"23647600@N06","authorname":"phudd23","raw":"sea","_content":"sea","machine_tag":0},{"id":"23602278-30630258871-223","author":"23647600@N06","authorname":"phudd23","raw":"sunset","_content":"sunset","machine_tag":0},{"id":"23602278-30630258871-449333","author":"23647600@N06","authorname":"phudd23","raw":"Tanna","_content":"tanna","machine_tag":0},{"id":"23602278-30630258871-215864","author":"23647600@N06","authorname":"phudd23","raw":"Vanuatu","_content":"vanuatu","machine_tag":0}]},"location":{"latitude":"-19.475137","longitude":"169.231269","accuracy":"11","context":"0","locality":{"_content":"Lenakel","place_id":".hJ0F2RQUr._Nu1y","woeid":"1050910"},"region":{"_content":"Tafea","place_id":"T5P5HX5TUrokKp9RSw","woeid":"20069887"},"country":{"_content":"Vanuatu","place_id":"dhMgLLZTUb546wzOYA","woeid":"23424907"},"place_id":".hJ0F2RQUr._Nu1y","woeid":"1050910"},"geoperms":{"ispublic":1,"iscontact":0,"isfriend":0,"isfamily":0},"urls":{"url":[{"type":"photopage","_content":"https:\u005c/\u005c/www.flickr.com\u005c/photos\u005c/23647600@N06\u005c/30630258871\u005c/"}]},"media":"photo"},"stat":"ok"})
p96
sS'https://api.flickr.com/services/rest/?format=json&method=flickr.photos.getInfo&per_page=50&photo_id=30630178101&tag_mode=all&tags=sunset'
p97
VjsonFlickrApi({"photo":{"id":"30630178101","secret":"19cc849576","server":"5742","farm":6,"dateuploaded":"1478031625","isfavorite":0,"license":"0","safety_level":"0","rotation":0,"originalsecret":"32cfb220eb","originalformat":"jpg","owner":{"nsid":"126050329@N06","username":"Gustavo Ferreiraa","realname":"Luiz Gustavo Ferreira","location":"","iconserver":"3914","iconfarm":4,"path_alias":null},"title":{"_content":"Sunrise"},"description":{"_content":"Amazing World"},"visibility":{"ispublic":1,"isfriend":0,"isfamily":0},"dates":{"posted":"1478031625","taken":"2016-10-27 19:28:49","takengranularity":"0","takenunknown":"0","lastupdate":"1486174510"},"views":"277","editability":{"cancomment":0,"canaddmeta":0},"publiceditability":{"cancomment":1,"canaddmeta":0},"usage":{"candownload":1,"canblog":0,"canprint":0,"canshare":1},"comments":{"_content":"0"},"notes":{"note":[]},"people":{"haspeople":0},"tags":{"tag":[{"id":"126005007-30630178101-1382","author":"126050329@N06","authorname":"Gustavo Ferreiraa","raw":"canon","_content":"canon","machine_tag":0},{"id":"126005007-30630178101-282","author":"126050329@N06","authorname":"Gustavo Ferreiraa","raw":"sky","_content":"sky","machine_tag":0},{"id":"126005007-30630178101-342114","author":"126050329@N06","authorname":"Gustavo Ferreiraa","raw":"endofday","_content":"endofday","machine_tag":0},{"id":"126005007-30630178101-3511","author":"126050329@N06","authorname":"Gustavo Ferreiraa","raw":"day","_content":"day","machine_tag":0},{"id":"126005007-30630178101-223","author":"126050329@N06","authorname":"Gustavo Ferreiraa","raw":"sunset","_content":"sunset","machine_tag":0}]},"urls":{"url":[{"type":"photopage","_content":"https:\u005c/\u005c/www.flickr.com\u005c/photos\u005c/126050329@N06\u005c/30630178101\u005c/"}]},"media":"photo"},"stat":"ok"})
p98
sS'https://api.flickr.com/services/rest/?format=json&method=flickr.photos.getInfo&per_page=50&photo_id=30681951376&tag_mode=all&tags=sunset'
p99
VjsonFlickrApi({"photo":{"id":"30681951376","secret":"e8882109fa","server":"5780","farm":6,"dateuploaded":"1478031889","isfavorite":0,"license":"0","safety_level":"0","rotation":0,"originalsecret":"737c19d9aa","originalformat":"jpg","owner":{"nsid":"146282755@N04","username":"thomasmartin12","realname":"Thomas Martin","location":"","iconserver":"8659","iconfarm":9,"path_alias":null},"title":{"_content":"Bateau"},"description":{"_content":""},"visibility":{"ispublic":1,"isfriend":0,"isfamily":0},"dates":{"posted":"1478031889","taken":"2016-11-01 18:11:07","takengranularity":"0","takenunknown":"0","lastupdate":"1492235222"},"views":"305","editability":{"cancomment":0,"canaddmeta":0},"publiceditability":{"cancomment":1,"canaddmeta":0},"usage":{"candownload":1,"canblog":0,"canprint":0,"canshare":1},"comments":{"_content":"1"},"notes":{"note":[]},"people":{"haspeople":0},"tags":{"tag":[{"id":"146250616-30681951376-34040","author":"146282755@N04","authorname":"thomasmartin12","raw":"bateau","_content":"bateau","machine_tag":0},{"id":"146250616-30681951376-381","author":"146282755@N04","authorname":"thomasmartin12","raw":"mer","_content":"mer","machine_tag":0},{"id":"146250616-30681951376-29566","author":"146282755@N04","authorname":"thomasmartin12","raw":"larochelle","_content":"larochelle","machine_tag":0},{"id":"146250616-30681951376-1382","author":"146282755@N04","authorname":"thomasmartin12","raw":"canon","_content":"canon","machine_tag":0},{"id":"146250616-30681951376-4042241","author":"146282755@N04","authorname":"thomasmartin12","raw":"100D","_content":"100d","machine_tag":0},{"id":"146250616-30681951376-36726","author":"146282755@N04","authorname":"thomasmartin12","raw":"tamron","_content":"tamron","machine_tag":0},{"id":"146250616-30681951376-297937","author":"146282755@N04","authorname":"thomasmartin12","raw":"70-300","_content":"70300","machine_tag":0},{"id":"146250616-30681951376-223","author":"146282755@N04","authorname":"thomasmartin12","raw":"sunset","_content":"sunset","machine_tag":0},{"id":"146250616-30681951376-1213","author":"146282755@N04","authorname":"thomasmartin12","raw":"night","_content":"night","machine_tag":0},{"id":"146250616-30681951376-44565","author":"146282755@N04","authorname":"thomasmartin12","raw":"nuit","_content":"nuit","machine_tag":0}]},"urls":{"url":[{"type":"photopage","_content":"https:\u005c/\u005c/www.flickr.com\u005c/photos\u005c/146282755@N04\u005c/30681951376\u005c/"}]},"media":"photo"},"stat":"ok"})
p100
sS'https://api.flickr.com/services/rest/?format=json&method=flickr.photos.getInfo&per_page=50&photo_id=30718936245&tag_mode=all&tags=sunset'
p101
VjsonFlickrApi({"photo":{"id":"30718936245","secret":"54e0d96ddd","server":"5652","farm":6,"dateuploaded":"1478032209","isfavorite":0,"license":"0","safety_level":"0","rotation":0,"originalsecret":"b4c5297a2e","originalformat":"jpg","owner":{"nsid":"25834184@N04","username":"Walter Johannesen","realname":"Walter Johannesen","location":"Hobro, Denmark","iconserver":"7525","iconfarm":8,"path_alias":"walter_johannesen"},"title":{"_content":"Eftermiddag ved Ferring Strand 02 BW"},"description":{"_content":""},"visibility":{"ispublic":1,"isfriend":0,"isfamily":0},"dates":{"posted":"1478032209","taken":"2016-11-01 17:00:33","takengranularity":"0","takenunknown":"0","lastupdate":"1478076499"},"views":"80","editability":{"cancomment":0,"canaddmeta":0},"publiceditability":{"cancomment":1,"canaddmeta":0},"usage":{"candownload":1,"canblog":0,"canprint":0,"canshare":1},"comments":{"_content":"1"},"notes":{"note":[]},"people":{"haspeople":0},"tags":{"tag":[{"id":"25802045-30718936245-2654649","author":"25834184@N04","authorname":"Walter Johannesen","raw":"Bovbjerg","_content":"bovbjerg","machine_tag":0},{"id":"25802045-30718936245-1225306","author":"25834184@N04","authorname":"Walter Johannesen","raw":"efter\u005cu00e5r","_content":"efter\u005cu00e5r","machine_tag":0},{"id":"25802045-30718936245-1260216","author":"25834184@N04","authorname":"Walter Johannesen","raw":"Ferring","_content":"ferring","machine_tag":0},{"id":"25802045-30718936245-1237","author":"25834184@N04","authorname":"Walter Johannesen","raw":"Strand","_content":"strand","machine_tag":0},{"id":"25802045-30718936245-704","author":"25834184@N04","authorname":"Walter Johannesen","raw":"Beach","_content":"beach","machine_tag":0},{"id":"25802045-30718936245-258514","author":"25834184@N04","authorname":"Walter Johannesen","raw":"kyst","_content":"kyst","machine_tag":0},{"id":"25802045-30718936245-2143","author":"25834184@N04","authorname":"Walter Johannesen","raw":"coast","_content":"coast","machine_tag":0},{"id":"25802045-30718936245-223","author":"25834184@N04","authorname":"Walter Johannesen","raw":"sunset","_content":"sunset","machine_tag":0},{"id":"25802045-30718936245-3707","author":"25834184@N04","authorname":"Walter Johannesen","raw":"afternoon","_content":"afternoon","machine_tag":0},{"id":"25802045-30718936245-3699007","author":"25834184@N04","authorname":"Walter Johannesen","raw":"eftermiddag","_content":"eftermiddag","machine_tag":0},{"id":"25802045-30718936245-122755","author":"25834184@N04","authorname":"Walter Johannesen","raw":"solnedgang","_content":"solnedgang","machine_tag":0},{"id":"25802045-30718936245-86820","author":"25834184@N04","authorname":"Walter Johannesen","raw":"skyer","_content":"skyer","machine_tag":0},{"id":"25802045-30718936245-3562","author":"25834184@N04","authorname":"Walter Johannesen","raw":"skies","_content":"skies","machine_tag":0}]},"location":{"latitude":"56.534772","longitude":"8.117673","accuracy":"15","context":"0","locality":{"_content":"Orum","place_id":"lY5JhptTW7nzk3GbjA","woeid":"29306412"},"county":{"_content":"Lemvig","place_id":"o25VybRQUL_DgkwJHQ","woeid":"12582769"},"region":{"_content":"Midtjylland","place_id":"qwVZEixTWrnxfsiP9w","woeid":"28362580"},"country":{"_content":"Denmark","place_id":"wzcKZZdTUb7wa1WOFw","woeid":"23424796"},"place_id":"lY5JhptTW7nzk3GbjA","woeid":"29306412"},"geoperms":{"ispublic":1,"iscontact":0,"isfriend":0,"isfamily":0},"urls":{"url":[{"type":"photopage","_content":"https:\u005c/\u005c/www.flickr.com\u005c/photos\u005c/walter_johannesen\u005c/30718936245\u005c/"}]},"media":"photo"},"stat":"ok"})
p102
sS'https://api.flickr.com/services/rest/?format=json&method=flickr.photos.getInfo&per_page=50&photo_id=30418023920&tag_mode=all&tags=sunset'
p103
VjsonFlickrApi({"photo":{"id":"30418023920","secret":"b25c9a4a45","server":"5655","farm":6,"dateuploaded":"1478031138","isfavorite":0,"license":"0","safety_level":"0","rotation":0,"originalsecret":"35315e7f23","originalformat":"jpg","owner":{"nsid":"142594009@N04","username":"TheAnthonyBrooks","realname":"Anthony Brooks","location":"","iconserver":"7427","iconfarm":8,"path_alias":"theanthonybrooks"},"title":{"_content":"Lazise - 10\u005c/22"},"description":{"_content":""},"visibility":{"ispublic":1,"isfriend":0,"isfamily":0},"dates":{"posted":"1478031138","taken":"2016-10-22 09:27:25","takengranularity":"0","takenunknown":"0","lastupdate":"1478031147"},"views":"14","editability":{"cancomment":0,"canaddmeta":0},"publiceditability":{"cancomment":1,"canaddmeta":0},"usage":{"candownload":1,"canblog":0,"canprint":0,"canshare":1},"comments":{"_content":"0"},"notes":{"note":[]},"people":{"haspeople":0},"tags":{"tag":[{"id":"142561870-30418023920-288814","author":"142594009@N04","authorname":"TheAnthonyBrooks","raw":"Lazise","_content":"lazise","machine_tag":0},{"id":"142561870-30418023920-297","author":"142594009@N04","authorname":"TheAnthonyBrooks","raw":"Italy","_content":"italy","machine_tag":0},{"id":"142561870-30418023920-3272","author":"142594009@N04","authorname":"TheAnthonyBrooks","raw":"Europe","_content":"europe","machine_tag":0},{"id":"142561870-30418023920-400","author":"142594009@N04","authorname":"TheAnthonyBrooks","raw":"Lake","_content":"lake","machine_tag":0},{"id":"142561870-30418023920-3140","author":"142594009@N04","authorname":"TheAnthonyBrooks","raw":"Garda","_content":"garda","machine_tag":0},{"id":"142561870-30418023920-223","author":"142594009@N04","authorname":"TheAnthonyBrooks","raw":"Sunset","_content":"sunset","machine_tag":0},{"id":"142561870-30418023920-1783","author":"142594009@N04","authorname":"TheAnthonyBrooks","raw":"Boats","_content":"boats","machine_tag":0},{"id":"142561870-30418023920-791","author":"142594009@N04","authorname":"TheAnthonyBrooks","raw":"Nature","_content":"nature","machine_tag":0},{"id":"142561870-30418023920-1174","author":"142594009@N04","authorname":"TheAnthonyBrooks","raw":"Architecture","_content":"architecture","machine_tag":0},{"id":"142561870-30418023920-1312","author":"142594009@N04","authorname":"TheAnthonyBrooks","raw":"Port","_content":"port","machine_tag":0},{"id":"142561870-30418023920-298853180","author":"142594009@N04","authorname":"TheAnthonyBrooks","raw":"SketchyTravels","_content":"sketchytravels","machine_tag":0},{"id":"142561870-30418023920-121","author":"142594009@N04","authorname":"TheAnthonyBrooks","raw":"Travel","_content":"travel","machine_tag":0}]},"urls":{"url":[{"type":"photopage","_content":"https:\u005c/\u005c/www.flickr.com\u005c/photos\u005c/theanthonybrooks\u005c/30418023920\u005c/"}]},"media":"photo"},"stat":"ok"})
p104
s.